
AVRASM ver. 2.1.30  D:\MyProjects\NRF2USB\List\1.asm Sat Sep 14 19:37:20 2013

D:\MyProjects\NRF2USB\List\1.asm(1070): warning: Register r5 already defined by the .DEF directive
D:\MyProjects\NRF2USB\List\1.asm(1071): warning: Register r4 already defined by the .DEF directive
D:\MyProjects\NRF2USB\List\1.asm(1072): warning: Register r7 already defined by the .DEF directive
D:\MyProjects\NRF2USB\List\1.asm(1073): warning: Register r6 already defined by the .DEF directive
                 
                 
                 ;CodeVisionAVR C Compiler V2.05.3 Standard
                 ;(C) Copyright 1998-2011 Pavel Haiduc, HP InfoTech s.r.l.
                 ;http://www.hpinfotech.com
                 
                 ;Chip type                : ATmega8
                 ;Program type             : Application
                 ;Clock frequency          : 8.000000 MHz
                 ;Memory model             : Small
                 ;Optimize for             : Size
                 ;(s)printf features       : int, width
                 ;(s)scanf features        : int, width
                 ;External RAM size        : 0
                 ;Data Stack size          : 256 byte(s)
                 ;Heap size                : 0 byte(s)
                 ;Promote 'char' to 'int'  : Yes
                 ;'char' is unsigned       : Yes
                 ;8 bit enums              : Yes
                 ;Global 'const' stored in FLASH     : No
                 ;Enhanced function parameter passing: Yes
                 ;Enhanced core instructions         : On
                 ;Smart register allocation          : On
                 ;Automatic register allocation      : On
                 
                 	#pragma AVRPART ADMIN PART_NAME ATmega8
                 	#pragma AVRPART MEMORY PROG_FLASH 8192
                 	#pragma AVRPART MEMORY EEPROM 512
                 	#pragma AVRPART MEMORY INT_SRAM SIZE 1119
                 	#pragma AVRPART MEMORY INT_SRAM START_ADDR 0x60
                 
                 	.LISTMAC
                 	.EQU UDRE=0x5
                 	.EQU RXC=0x7
                 	.EQU USR=0xB
                 	.EQU UDR=0xC
                 	.EQU SPSR=0xE
                 	.EQU SPDR=0xF
                 	.EQU EERE=0x0
                 	.EQU EEWE=0x1
                 	.EQU EEMWE=0x2
                 	.EQU EECR=0x1C
                 	.EQU EEDR=0x1D
                 	.EQU EEARL=0x1E
                 	.EQU EEARH=0x1F
                 	.EQU WDTCR=0x21
                 	.EQU MCUCR=0x35
                 	.EQU GICR=0x3B
                 	.EQU SPL=0x3D
                 	.EQU SPH=0x3E
                 	.EQU SREG=0x3F
                 
                 	.DEF R0X0=R0
                 	.DEF R0X1=R1
                 	.DEF R0X2=R2
                 	.DEF R0X3=R3
                 	.DEF R0X4=R4
                 	.DEF R0X5=R5
                 	.DEF R0X6=R6
                 	.DEF R0X7=R7
                 	.DEF R0X8=R8
                 	.DEF R0X9=R9
                 	.DEF R0XA=R10
                 	.DEF R0XB=R11
                 	.DEF R0XC=R12
                 	.DEF R0XD=R13
                 	.DEF R0XE=R14
                 	.DEF R0XF=R15
                 	.DEF R0X10=R16
                 	.DEF R0X11=R17
                 	.DEF R0X12=R18
                 	.DEF R0X13=R19
                 	.DEF R0X14=R20
                 	.DEF R0X15=R21
                 	.DEF R0X16=R22
                 	.DEF R0X17=R23
                 	.DEF R0X18=R24
                 	.DEF R0X19=R25
                 	.DEF R0X1A=R26
                 	.DEF R0X1B=R27
                 	.DEF R0X1C=R28
                 	.DEF R0X1D=R29
                 	.DEF R0X1E=R30
                 	.DEF R0X1F=R31
                 
                 	.EQU __SRAM_START=0x0060
                 	.EQU __SRAM_END=0x045F
                 	.EQU __DSTACK_SIZE=0x0100
                 	.EQU __HEAP_SIZE=0x0000
                 	.EQU __CLEAR_SRAM_SIZE=__SRAM_END-__SRAM_START+1
                 
                 	.MACRO __CPD1N
                 	CPI  R30,LOW(@0)
                 	LDI  R26,HIGH(@0)
                 	CPC  R31,R26
                 	LDI  R26,BYTE3(@0)
                 	CPC  R22,R26
                 	LDI  R26,BYTE4(@0)
                 	CPC  R23,R26
                 	.ENDM
                 
                 	.MACRO __CPD2N
                 	CPI  R26,LOW(@0)
                 	LDI  R30,HIGH(@0)
                 	CPC  R27,R30
                 	LDI  R30,BYTE3(@0)
                 	CPC  R24,R30
                 	LDI  R30,BYTE4(@0)
                 	CPC  R25,R30
                 	.ENDM
                 
                 	.MACRO __CPWRR
                 	CP   R@0,R@2
                 	CPC  R@1,R@3
                 	.ENDM
                 
                 	.MACRO __CPWRN
                 	CPI  R@0,LOW(@2)
                 	LDI  R30,HIGH(@2)
                 	CPC  R@1,R30
                 	.ENDM
                 
                 	.MACRO __ADDB1MN
                 	SUBI R30,LOW(-@0-(@1))
                 	.ENDM
                 
                 	.MACRO __ADDB2MN
                 	SUBI R26,LOW(-@0-(@1))
                 	.ENDM
                 
                 	.MACRO __ADDW1MN
                 	SUBI R30,LOW(-@0-(@1))
                 	SBCI R31,HIGH(-@0-(@1))
                 	.ENDM
                 
                 	.MACRO __ADDW2MN
                 	SUBI R26,LOW(-@0-(@1))
                 	SBCI R27,HIGH(-@0-(@1))
                 	.ENDM
                 
                 	.MACRO __ADDW1FN
                 	SUBI R30,LOW(-2*@0-(@1))
                 	SBCI R31,HIGH(-2*@0-(@1))
                 	.ENDM
                 
                 	.MACRO __ADDD1FN
                 	SUBI R30,LOW(-2*@0-(@1))
                 	SBCI R31,HIGH(-2*@0-(@1))
                 	SBCI R22,BYTE3(-2*@0-(@1))
                 	.ENDM
                 
                 	.MACRO __ADDD1N
                 	SUBI R30,LOW(-@0)
                 	SBCI R31,HIGH(-@0)
                 	SBCI R22,BYTE3(-@0)
                 	SBCI R23,BYTE4(-@0)
                 	.ENDM
                 
                 	.MACRO __ADDD2N
                 	SUBI R26,LOW(-@0)
                 	SBCI R27,HIGH(-@0)
                 	SBCI R24,BYTE3(-@0)
                 	SBCI R25,BYTE4(-@0)
                 	.ENDM
                 
                 	.MACRO __SUBD1N
                 	SUBI R30,LOW(@0)
                 	SBCI R31,HIGH(@0)
                 	SBCI R22,BYTE3(@0)
                 	SBCI R23,BYTE4(@0)
                 	.ENDM
                 
                 	.MACRO __SUBD2N
                 	SUBI R26,LOW(@0)
                 	SBCI R27,HIGH(@0)
                 	SBCI R24,BYTE3(@0)
                 	SBCI R25,BYTE4(@0)
                 	.ENDM
                 
                 	.MACRO __ANDBMNN
                 	LDS  R30,@0+(@1)
                 	ANDI R30,LOW(@2)
                 	STS  @0+(@1),R30
                 	.ENDM
                 
                 	.MACRO __ANDWMNN
                 	LDS  R30,@0+(@1)
                 	ANDI R30,LOW(@2)
                 	STS  @0+(@1),R30
                 	LDS  R30,@0+(@1)+1
                 	ANDI R30,HIGH(@2)
                 	STS  @0+(@1)+1,R30
                 	.ENDM
                 
                 	.MACRO __ANDD1N
                 	ANDI R30,LOW(@0)
                 	ANDI R31,HIGH(@0)
                 	ANDI R22,BYTE3(@0)
                 	ANDI R23,BYTE4(@0)
                 	.ENDM
                 
                 	.MACRO __ANDD2N
                 	ANDI R26,LOW(@0)
                 	ANDI R27,HIGH(@0)
                 	ANDI R24,BYTE3(@0)
                 	ANDI R25,BYTE4(@0)
                 	.ENDM
                 
                 	.MACRO __ORBMNN
                 	LDS  R30,@0+(@1)
                 	ORI  R30,LOW(@2)
                 	STS  @0+(@1),R30
                 	.ENDM
                 
                 	.MACRO __ORWMNN
                 	LDS  R30,@0+(@1)
                 	ORI  R30,LOW(@2)
                 	STS  @0+(@1),R30
                 	LDS  R30,@0+(@1)+1
                 	ORI  R30,HIGH(@2)
                 	STS  @0+(@1)+1,R30
                 	.ENDM
                 
                 	.MACRO __ORD1N
                 	ORI  R30,LOW(@0)
                 	ORI  R31,HIGH(@0)
                 	ORI  R22,BYTE3(@0)
                 	ORI  R23,BYTE4(@0)
                 	.ENDM
                 
                 	.MACRO __ORD2N
                 	ORI  R26,LOW(@0)
                 	ORI  R27,HIGH(@0)
                 	ORI  R24,BYTE3(@0)
                 	ORI  R25,BYTE4(@0)
                 	.ENDM
                 
                 	.MACRO __DELAY_USB
                 	LDI  R24,LOW(@0)
                 __DELAY_USB_LOOP:
                 	DEC  R24
                 	BRNE __DELAY_USB_LOOP
                 	.ENDM
                 
                 	.MACRO __DELAY_USW
                 	LDI  R24,LOW(@0)
                 	LDI  R25,HIGH(@0)
                 __DELAY_USW_LOOP:
                 	SBIW R24,1
                 	BRNE __DELAY_USW_LOOP
                 	.ENDM
                 
                 	.MACRO __GETD1S
                 	LDD  R30,Y+@0
                 	LDD  R31,Y+@0+1
                 	LDD  R22,Y+@0+2
                 	LDD  R23,Y+@0+3
                 	.ENDM
                 
                 	.MACRO __GETD2S
                 	LDD  R26,Y+@0
                 	LDD  R27,Y+@0+1
                 	LDD  R24,Y+@0+2
                 	LDD  R25,Y+@0+3
                 	.ENDM
                 
                 	.MACRO __PUTD1S
                 	STD  Y+@0,R30
                 	STD  Y+@0+1,R31
                 	STD  Y+@0+2,R22
                 	STD  Y+@0+3,R23
                 	.ENDM
                 
                 	.MACRO __PUTD2S
                 	STD  Y+@0,R26
                 	STD  Y+@0+1,R27
                 	STD  Y+@0+2,R24
                 	STD  Y+@0+3,R25
                 	.ENDM
                 
                 	.MACRO __PUTDZ2
                 	STD  Z+@0,R26
                 	STD  Z+@0+1,R27
                 	STD  Z+@0+2,R24
                 	STD  Z+@0+3,R25
                 	.ENDM
                 
                 	.MACRO __CLRD1S
                 	STD  Y+@0,R30
                 	STD  Y+@0+1,R30
                 	STD  Y+@0+2,R30
                 	STD  Y+@0+3,R30
                 	.ENDM
                 
                 	.MACRO __POINTB1MN
                 	LDI  R30,LOW(@0+(@1))
                 	.ENDM
                 
                 	.MACRO __POINTW1MN
                 	LDI  R30,LOW(@0+(@1))
                 	LDI  R31,HIGH(@0+(@1))
                 	.ENDM
                 
                 	.MACRO __POINTD1M
                 	LDI  R30,LOW(@0)
                 	LDI  R31,HIGH(@0)
                 	LDI  R22,BYTE3(@0)
                 	LDI  R23,BYTE4(@0)
                 	.ENDM
                 
                 	.MACRO __POINTW1FN
                 	LDI  R30,LOW(2*@0+(@1))
                 	LDI  R31,HIGH(2*@0+(@1))
                 	.ENDM
                 
                 	.MACRO __POINTD1FN
                 	LDI  R30,LOW(2*@0+(@1))
                 	LDI  R31,HIGH(2*@0+(@1))
                 	LDI  R22,BYTE3(2*@0+(@1))
                 	LDI  R23,BYTE4(2*@0+(@1))
                 	.ENDM
                 
                 	.MACRO __POINTB2MN
                 	LDI  R26,LOW(@0+(@1))
                 	.ENDM
                 
                 	.MACRO __POINTW2MN
                 	LDI  R26,LOW(@0+(@1))
                 	LDI  R27,HIGH(@0+(@1))
                 	.ENDM
                 
                 	.MACRO __POINTW2FN
                 	LDI  R26,LOW(2*@0+(@1))
                 	LDI  R27,HIGH(2*@0+(@1))
                 	.ENDM
                 
                 	.MACRO __POINTD2FN
                 	LDI  R26,LOW(2*@0+(@1))
                 	LDI  R27,HIGH(2*@0+(@1))
                 	LDI  R24,BYTE3(2*@0+(@1))
                 	LDI  R25,BYTE4(2*@0+(@1))
                 	.ENDM
                 
                 	.MACRO __POINTBRM
                 	LDI  R@0,LOW(@1)
                 	.ENDM
                 
                 	.MACRO __POINTWRM
                 	LDI  R@0,LOW(@2)
                 	LDI  R@1,HIGH(@2)
                 	.ENDM
                 
                 	.MACRO __POINTBRMN
                 	LDI  R@0,LOW(@1+(@2))
                 	.ENDM
                 
                 	.MACRO __POINTWRMN
                 	LDI  R@0,LOW(@2+(@3))
                 	LDI  R@1,HIGH(@2+(@3))
                 	.ENDM
                 
                 	.MACRO __POINTWRFN
                 	LDI  R@0,LOW(@2*2+(@3))
                 	LDI  R@1,HIGH(@2*2+(@3))
                 	.ENDM
                 
                 	.MACRO __GETD1N
                 	LDI  R30,LOW(@0)
                 	LDI  R31,HIGH(@0)
                 	LDI  R22,BYTE3(@0)
                 	LDI  R23,BYTE4(@0)
                 	.ENDM
                 
                 	.MACRO __GETD2N
                 	LDI  R26,LOW(@0)
                 	LDI  R27,HIGH(@0)
                 	LDI  R24,BYTE3(@0)
                 	LDI  R25,BYTE4(@0)
                 	.ENDM
                 
                 	.MACRO __GETB1MN
                 	LDS  R30,@0+(@1)
                 	.ENDM
                 
                 	.MACRO __GETB1HMN
                 	LDS  R31,@0+(@1)
                 	.ENDM
                 
                 	.MACRO __GETW1MN
                 	LDS  R30,@0+(@1)
                 	LDS  R31,@0+(@1)+1
                 	.ENDM
                 
                 	.MACRO __GETD1MN
                 	LDS  R30,@0+(@1)
                 	LDS  R31,@0+(@1)+1
                 	LDS  R22,@0+(@1)+2
                 	LDS  R23,@0+(@1)+3
                 	.ENDM
                 
                 	.MACRO __GETBRMN
                 	LDS  R@0,@1+(@2)
                 	.ENDM
                 
                 	.MACRO __GETWRMN
                 	LDS  R@0,@2+(@3)
                 	LDS  R@1,@2+(@3)+1
                 	.ENDM
                 
                 	.MACRO __GETWRZ
                 	LDD  R@0,Z+@2
                 	LDD  R@1,Z+@2+1
                 	.ENDM
                 
                 	.MACRO __GETD2Z
                 	LDD  R26,Z+@0
                 	LDD  R27,Z+@0+1
                 	LDD  R24,Z+@0+2
                 	LDD  R25,Z+@0+3
                 	.ENDM
                 
                 	.MACRO __GETB2MN
                 	LDS  R26,@0+(@1)
                 	.ENDM
                 
                 	.MACRO __GETW2MN
                 	LDS  R26,@0+(@1)
                 	LDS  R27,@0+(@1)+1
                 	.ENDM
                 
                 	.MACRO __GETD2MN
                 	LDS  R26,@0+(@1)
                 	LDS  R27,@0+(@1)+1
                 	LDS  R24,@0+(@1)+2
                 	LDS  R25,@0+(@1)+3
                 	.ENDM
                 
                 	.MACRO __PUTB1MN
                 	STS  @0+(@1),R30
                 	.ENDM
                 
                 	.MACRO __PUTW1MN
                 	STS  @0+(@1),R30
                 	STS  @0+(@1)+1,R31
                 	.ENDM
                 
                 	.MACRO __PUTD1MN
                 	STS  @0+(@1),R30
                 	STS  @0+(@1)+1,R31
                 	STS  @0+(@1)+2,R22
                 	STS  @0+(@1)+3,R23
                 	.ENDM
                 
                 	.MACRO __PUTB1EN
                 	LDI  R26,LOW(@0+(@1))
                 	LDI  R27,HIGH(@0+(@1))
                 	RCALL __EEPROMWRB
                 	.ENDM
                 
                 	.MACRO __PUTW1EN
                 	LDI  R26,LOW(@0+(@1))
                 	LDI  R27,HIGH(@0+(@1))
                 	RCALL __EEPROMWRW
                 	.ENDM
                 
                 	.MACRO __PUTD1EN
                 	LDI  R26,LOW(@0+(@1))
                 	LDI  R27,HIGH(@0+(@1))
                 	RCALL __EEPROMWRD
                 	.ENDM
                 
                 	.MACRO __PUTBR0MN
                 	STS  @0+(@1),R0
                 	.ENDM
                 
                 	.MACRO __PUTBMRN
                 	STS  @0+(@1),R@2
                 	.ENDM
                 
                 	.MACRO __PUTWMRN
                 	STS  @0+(@1),R@2
                 	STS  @0+(@1)+1,R@3
                 	.ENDM
                 
                 	.MACRO __PUTBZR
                 	STD  Z+@1,R@0
                 	.ENDM
                 
                 	.MACRO __PUTWZR
                 	STD  Z+@2,R@0
                 	STD  Z+@2+1,R@1
                 	.ENDM
                 
                 	.MACRO __GETW1R
                 	MOV  R30,R@0
                 	MOV  R31,R@1
                 	.ENDM
                 
                 	.MACRO __GETW2R
                 	MOV  R26,R@0
                 	MOV  R27,R@1
                 	.ENDM
                 
                 	.MACRO __GETWRN
                 	LDI  R@0,LOW(@2)
                 	LDI  R@1,HIGH(@2)
                 	.ENDM
                 
                 	.MACRO __PUTW1R
                 	MOV  R@0,R30
                 	MOV  R@1,R31
                 	.ENDM
                 
                 	.MACRO __PUTW2R
                 	MOV  R@0,R26
                 	MOV  R@1,R27
                 	.ENDM
                 
                 	.MACRO __ADDWRN
                 	SUBI R@0,LOW(-@2)
                 	SBCI R@1,HIGH(-@2)
                 	.ENDM
                 
                 	.MACRO __ADDWRR
                 	ADD  R@0,R@2
                 	ADC  R@1,R@3
                 	.ENDM
                 
                 	.MACRO __SUBWRN
                 	SUBI R@0,LOW(@2)
                 	SBCI R@1,HIGH(@2)
                 	.ENDM
                 
                 	.MACRO __SUBWRR
                 	SUB  R@0,R@2
                 	SBC  R@1,R@3
                 	.ENDM
                 
                 	.MACRO __ANDWRN
                 	ANDI R@0,LOW(@2)
                 	ANDI R@1,HIGH(@2)
                 	.ENDM
                 
                 	.MACRO __ANDWRR
                 	AND  R@0,R@2
                 	AND  R@1,R@3
                 	.ENDM
                 
                 	.MACRO __ORWRN
                 	ORI  R@0,LOW(@2)
                 	ORI  R@1,HIGH(@2)
                 	.ENDM
                 
                 	.MACRO __ORWRR
                 	OR   R@0,R@2
                 	OR   R@1,R@3
                 	.ENDM
                 
                 	.MACRO __EORWRR
                 	EOR  R@0,R@2
                 	EOR  R@1,R@3
                 	.ENDM
                 
                 	.MACRO __GETWRS
                 	LDD  R@0,Y+@2
                 	LDD  R@1,Y+@2+1
                 	.ENDM
                 
                 	.MACRO __PUTBSR
                 	STD  Y+@1,R@0
                 	.ENDM
                 
                 	.MACRO __PUTWSR
                 	STD  Y+@2,R@0
                 	STD  Y+@2+1,R@1
                 	.ENDM
                 
                 	.MACRO __MOVEWRR
                 	MOV  R@0,R@2
                 	MOV  R@1,R@3
                 	.ENDM
                 
                 	.MACRO __INWR
                 	IN   R@0,@2
                 	IN   R@1,@2+1
                 	.ENDM
                 
                 	.MACRO __OUTWR
                 	OUT  @2+1,R@1
                 	OUT  @2,R@0
                 	.ENDM
                 
                 	.MACRO __CALL1MN
                 	LDS  R30,@0+(@1)
                 	LDS  R31,@0+(@1)+1
                 	ICALL
                 	.ENDM
                 
                 	.MACRO __CALL1FN
                 	LDI  R30,LOW(2*@0+(@1))
                 	LDI  R31,HIGH(2*@0+(@1))
                 	RCALL __GETW1PF
                 	ICALL
                 	.ENDM
                 
                 	.MACRO __CALL2EN
                 	LDI  R26,LOW(@0+(@1))
                 	LDI  R27,HIGH(@0+(@1))
                 	RCALL __EEPROMRDW
                 	ICALL
                 	.ENDM
                 
                 	.MACRO __GETW1STACK
                 	IN   R26,SPL
                 	IN   R27,SPH
                 	ADIW R26,@0+1
                 	LD   R30,X+
                 	LD   R31,X
                 	.ENDM
                 
                 	.MACRO __GETD1STACK
                 	IN   R26,SPL
                 	IN   R27,SPH
                 	ADIW R26,@0+1
                 	LD   R30,X+
                 	LD   R31,X+
                 	LD   R22,X
                 	.ENDM
                 
                 	.MACRO __NBST
                 	BST  R@0,@1
                 	IN   R30,SREG
                 	LDI  R31,0x40
                 	EOR  R30,R31
                 	OUT  SREG,R30
                 	.ENDM
                 
                 
                 	.MACRO __PUTB1SN
                 	LDD  R26,Y+@0
                 	LDD  R27,Y+@0+1
                 	SUBI R26,LOW(-@1)
                 	SBCI R27,HIGH(-@1)
                 	ST   X,R30
                 	.ENDM
                 
                 	.MACRO __PUTW1SN
                 	LDD  R26,Y+@0
                 	LDD  R27,Y+@0+1
                 	SUBI R26,LOW(-@1)
                 	SBCI R27,HIGH(-@1)
                 	ST   X+,R30
                 	ST   X,R31
                 	.ENDM
                 
                 	.MACRO __PUTD1SN
                 	LDD  R26,Y+@0
                 	LDD  R27,Y+@0+1
                 	SUBI R26,LOW(-@1)
                 	SBCI R27,HIGH(-@1)
                 	RCALL __PUTDP1
                 	.ENDM
                 
                 	.MACRO __PUTB1SNS
                 	LDD  R26,Y+@0
                 	LDD  R27,Y+@0+1
                 	ADIW R26,@1
                 	ST   X,R30
                 	.ENDM
                 
                 	.MACRO __PUTW1SNS
                 	LDD  R26,Y+@0
                 	LDD  R27,Y+@0+1
                 	ADIW R26,@1
                 	ST   X+,R30
                 	ST   X,R31
                 	.ENDM
                 
                 	.MACRO __PUTD1SNS
                 	LDD  R26,Y+@0
                 	LDD  R27,Y+@0+1
                 	ADIW R26,@1
                 	RCALL __PUTDP1
                 	.ENDM
                 
                 	.MACRO __PUTB1PMN
                 	LDS  R26,@0
                 	LDS  R27,@0+1
                 	SUBI R26,LOW(-@1)
                 	SBCI R27,HIGH(-@1)
                 	ST   X,R30
                 	.ENDM
                 
                 	.MACRO __PUTW1PMN
                 	LDS  R26,@0
                 	LDS  R27,@0+1
                 	SUBI R26,LOW(-@1)
                 	SBCI R27,HIGH(-@1)
                 	ST   X+,R30
                 	ST   X,R31
                 	.ENDM
                 
                 	.MACRO __PUTD1PMN
                 	LDS  R26,@0
                 	LDS  R27,@0+1
                 	SUBI R26,LOW(-@1)
                 	SBCI R27,HIGH(-@1)
                 	RCALL __PUTDP1
                 	.ENDM
                 
                 	.MACRO __PUTB1PMNS
                 	LDS  R26,@0
                 	LDS  R27,@0+1
                 	ADIW R26,@1
                 	ST   X,R30
                 	.ENDM
                 
                 	.MACRO __PUTW1PMNS
                 	LDS  R26,@0
                 	LDS  R27,@0+1
                 	ADIW R26,@1
                 	ST   X+,R30
                 	ST   X,R31
                 	.ENDM
                 
                 	.MACRO __PUTD1PMNS
                 	LDS  R26,@0
                 	LDS  R27,@0+1
                 	ADIW R26,@1
                 	RCALL __PUTDP1
                 	.ENDM
                 
                 	.MACRO __PUTB1RN
                 	MOVW R26,R@0
                 	SUBI R26,LOW(-@1)
                 	SBCI R27,HIGH(-@1)
                 	ST   X,R30
                 	.ENDM
                 
                 	.MACRO __PUTW1RN
                 	MOVW R26,R@0
                 	SUBI R26,LOW(-@1)
                 	SBCI R27,HIGH(-@1)
                 	ST   X+,R30
                 	ST   X,R31
                 	.ENDM
                 
                 	.MACRO __PUTD1RN
                 	MOVW R26,R@0
                 	SUBI R26,LOW(-@1)
                 	SBCI R27,HIGH(-@1)
                 	RCALL __PUTDP1
                 	.ENDM
                 
                 	.MACRO __PUTB1RNS
                 	MOVW R26,R@0
                 	ADIW R26,@1
                 	ST   X,R30
                 	.ENDM
                 
                 	.MACRO __PUTW1RNS
                 	MOVW R26,R@0
                 	ADIW R26,@1
                 	ST   X+,R30
                 	ST   X,R31
                 	.ENDM
                 
                 	.MACRO __PUTD1RNS
                 	MOVW R26,R@0
                 	ADIW R26,@1
                 	RCALL __PUTDP1
                 	.ENDM
                 
                 	.MACRO __PUTB1RON
                 	MOV  R26,R@0
                 	MOV  R27,R@1
                 	SUBI R26,LOW(-@2)
                 	SBCI R27,HIGH(-@2)
                 	ST   X,R30
                 	.ENDM
                 
                 	.MACRO __PUTW1RON
                 	MOV  R26,R@0
                 	MOV  R27,R@1
                 	SUBI R26,LOW(-@2)
                 	SBCI R27,HIGH(-@2)
                 	ST   X+,R30
                 	ST   X,R31
                 	.ENDM
                 
                 	.MACRO __PUTD1RON
                 	MOV  R26,R@0
                 	MOV  R27,R@1
                 	SUBI R26,LOW(-@2)
                 	SBCI R27,HIGH(-@2)
                 	RCALL __PUTDP1
                 	.ENDM
                 
                 	.MACRO __PUTB1RONS
                 	MOV  R26,R@0
                 	MOV  R27,R@1
                 	ADIW R26,@2
                 	ST   X,R30
                 	.ENDM
                 
                 	.MACRO __PUTW1RONS
                 	MOV  R26,R@0
                 	MOV  R27,R@1
                 	ADIW R26,@2
                 	ST   X+,R30
                 	ST   X,R31
                 	.ENDM
                 
                 	.MACRO __PUTD1RONS
                 	MOV  R26,R@0
                 	MOV  R27,R@1
                 	ADIW R26,@2
                 	RCALL __PUTDP1
                 	.ENDM
                 
                 
                 	.MACRO __GETB1SX
                 	MOVW R30,R28
                 	SUBI R30,LOW(-@0)
                 	SBCI R31,HIGH(-@0)
                 	LD   R30,Z
                 	.ENDM
                 
                 	.MACRO __GETB1HSX
                 	MOVW R30,R28
                 	SUBI R30,LOW(-@0)
                 	SBCI R31,HIGH(-@0)
                 	LD   R31,Z
                 	.ENDM
                 
                 	.MACRO __GETW1SX
                 	MOVW R30,R28
                 	SUBI R30,LOW(-@0)
                 	SBCI R31,HIGH(-@0)
                 	LD   R0,Z+
                 	LD   R31,Z
                 	MOV  R30,R0
                 	.ENDM
                 
                 	.MACRO __GETD1SX
                 	MOVW R30,R28
                 	SUBI R30,LOW(-@0)
                 	SBCI R31,HIGH(-@0)
                 	LD   R0,Z+
                 	LD   R1,Z+
                 	LD   R22,Z+
                 	LD   R23,Z
                 	MOVW R30,R0
                 	.ENDM
                 
                 	.MACRO __GETB2SX
                 	MOVW R26,R28
                 	SUBI R26,LOW(-@0)
                 	SBCI R27,HIGH(-@0)
                 	LD   R26,X
                 	.ENDM
                 
                 	.MACRO __GETW2SX
                 	MOVW R26,R28
                 	SUBI R26,LOW(-@0)
                 	SBCI R27,HIGH(-@0)
                 	LD   R0,X+
                 	LD   R27,X
                 	MOV  R26,R0
                 	.ENDM
                 
                 	.MACRO __GETD2SX
                 	MOVW R26,R28
                 	SUBI R26,LOW(-@0)
                 	SBCI R27,HIGH(-@0)
                 	LD   R0,X+
                 	LD   R1,X+
                 	LD   R24,X+
                 	LD   R25,X
                 	MOVW R26,R0
                 	.ENDM
                 
                 	.MACRO __GETBRSX
                 	MOVW R30,R28
                 	SUBI R30,LOW(-@1)
                 	SBCI R31,HIGH(-@1)
                 	LD   R@0,Z
                 	.ENDM
                 
                 	.MACRO __GETWRSX
                 	MOVW R30,R28
                 	SUBI R30,LOW(-@2)
                 	SBCI R31,HIGH(-@2)
                 	LD   R@0,Z+
                 	LD   R@1,Z
                 	.ENDM
                 
                 	.MACRO __GETBRSX2
                 	MOVW R26,R28
                 	SUBI R26,LOW(-@1)
                 	SBCI R27,HIGH(-@1)
                 	LD   R@0,X
                 	.ENDM
                 
                 	.MACRO __GETWRSX2
                 	MOVW R26,R28
                 	SUBI R26,LOW(-@2)
                 	SBCI R27,HIGH(-@2)
                 	LD   R@0,X+
                 	LD   R@1,X
                 	.ENDM
                 
                 	.MACRO __LSLW8SX
                 	MOVW R30,R28
                 	SUBI R30,LOW(-@0)
                 	SBCI R31,HIGH(-@0)
                 	LD   R31,Z
                 	CLR  R30
                 	.ENDM
                 
                 	.MACRO __PUTB1SX
                 	MOVW R26,R28
                 	SUBI R26,LOW(-@0)
                 	SBCI R27,HIGH(-@0)
                 	ST   X,R30
                 	.ENDM
                 
                 	.MACRO __PUTW1SX
                 	MOVW R26,R28
                 	SUBI R26,LOW(-@0)
                 	SBCI R27,HIGH(-@0)
                 	ST   X+,R30
                 	ST   X,R31
                 	.ENDM
                 
                 	.MACRO __PUTD1SX
                 	MOVW R26,R28
                 	SUBI R26,LOW(-@0)
                 	SBCI R27,HIGH(-@0)
                 	ST   X+,R30
                 	ST   X+,R31
                 	ST   X+,R22
                 	ST   X,R23
                 	.ENDM
                 
                 	.MACRO __CLRW1SX
                 	MOVW R26,R28
                 	SUBI R26,LOW(-@0)
                 	SBCI R27,HIGH(-@0)
                 	ST   X+,R30
                 	ST   X,R30
                 	.ENDM
                 
                 	.MACRO __CLRD1SX
                 	MOVW R26,R28
                 	SUBI R26,LOW(-@0)
                 	SBCI R27,HIGH(-@0)
                 	ST   X+,R30
                 	ST   X+,R30
                 	ST   X+,R30
                 	ST   X,R30
                 	.ENDM
                 
                 	.MACRO __PUTB2SX
                 	MOVW R30,R28
                 	SUBI R30,LOW(-@0)
                 	SBCI R31,HIGH(-@0)
                 	ST   Z,R26
                 	.ENDM
                 
                 	.MACRO __PUTW2SX
                 	MOVW R30,R28
                 	SUBI R30,LOW(-@0)
                 	SBCI R31,HIGH(-@0)
                 	ST   Z+,R26
                 	ST   Z,R27
                 	.ENDM
                 
                 	.MACRO __PUTD2SX
                 	MOVW R30,R28
                 	SUBI R30,LOW(-@0)
                 	SBCI R31,HIGH(-@0)
                 	ST   Z+,R26
                 	ST   Z+,R27
                 	ST   Z+,R24
                 	ST   Z,R25
                 	.ENDM
                 
                 	.MACRO __PUTBSRX
                 	MOVW R30,R28
                 	SUBI R30,LOW(-@1)
                 	SBCI R31,HIGH(-@1)
                 	ST   Z,R@0
                 	.ENDM
                 
                 	.MACRO __PUTWSRX
                 	MOVW R30,R28
                 	SUBI R30,LOW(-@2)
                 	SBCI R31,HIGH(-@2)
                 	ST   Z+,R@0
                 	ST   Z,R@1
                 	.ENDM
                 
                 	.MACRO __PUTB1SNX
                 	MOVW R26,R28
                 	SUBI R26,LOW(-@0)
                 	SBCI R27,HIGH(-@0)
                 	LD   R0,X+
                 	LD   R27,X
                 	MOV  R26,R0
                 	SUBI R26,LOW(-@1)
                 	SBCI R27,HIGH: 0
;PCODE: $000000F8 VOL: 0
; 0000 0099 ADCSRA|=0x10;
;PCODE: $000000F9 VOL: 0
;PCODE: $000000FA VOL: 0
; 0000 009A return ADCW;
;PCODE: $000000FB VOL: 0
;PCODE: $000000FC VOL: 0
;PCODE: $000000FD VOL: 0
; 0000 009B }
;PCODE: $000000FE VOL: 0
;
;void init()
; 0000 009E {
;PCODE: $000000FF VOL: 0
;PCODE: $00000100 VOL: 0
; 0000 009F // Declare your local variables here
; 0000 00A0 
; 0000 00A1 // Input/Output Ports initialization
; 0000 00A2 // Port A initialization
; 0000 00A3 // Func7=In Func6=In Func5=In Func4=In Func3=Out Func2=In Func1=In Func0=In
; 0000 00A4 // State7=T State6=T State5=T State4=T State3=T State2=T State1=T State0=T
; 0000 00A5 PORTA=0x00;
;PCODE: $00000101 VOL: 0
;PCODE: $00000102 VOL: 0
; 0000 00A6 DDRA=0x08;
;PCODE: $00000103 VOL: 0
;PCODE: $00000104 VOL: 0
; 0000 00A7 
; 0000 00A8 // Port B initialization
; 0000 00A9 // Func7=In Func6=Out Func5=Out Func4=Out Func3=Out Func2=Out Func1=In Func0=Out
; 0000 00AA // State7=T State6=0 State5=0 State4=0 State3=0 State2=0 State1=T State0=0
; 0000 00AB PORTB=0x00;
;PCODE: $00000105 VOL: 0
;PCODE: $00000106 VOL: 0
; 0000 00AC DDRB=0x7D;
;PCODE: $00000107 VOL: 0
;PCODE: $00000108 VOL: 0
; 0000 00AD 
; 0000 00AE // Port C initialization
; 0000 00AF // Func7=In Func6=In Func5=Out Func4=Out Func3=Out Func2=Out Func1=Out Func0=Out
; 0000 00B0 // State7=T State6=T State5=0 State4=0 State3=0 State2=0 State1=0 State0=0
; 0000 00B1 PORTC=0x00;
;PCODE: $00000109 VOL: 0
;PCODE: $0000010A VOL: 0
; 0000 00B2 DDRC=0x3F;
;PCODE: $0000010B VOL: 0
;PCODE: $0000010C VOL: 0
; 0000 00B3 
; 0000 00B4 // Port D initialization
; 0000 00B5 // Func7=In Func6=In Func5=In Func4=In Func3=In Func2=In Func1=In Func0=In
; 0000 00B6 // State7=P State6=P State5=P State4=P State3=T State2=T State1=T State0=T
; 0000 00B7 PORTD=0xF0;
;PCODE: $0000010D VOL: 0
;PCODE: $0000010E VOL: 0
; 0000 00B8 DDRD=0x00;
;PCODE: $0000010F VOL: 0
;PCODE: $00000110 VOL: 0
; 0000 00B9 
; 0000 00BA // Port E initialization
; 0000 00BB // Func7=In Func6=In Func5=In Func4=In Func3=In Func2=In Func1=In Func0=In
; 0000 00BC // State7=T State6=T State5=T State4=T State3=P State2=P State1=P State0=P
; 0000 00BD PORTE=0x0F;
;PCODE: $00000111 VOL: 0
;PCODE: $00000112 VOL: 0
; 0000 00BE DDRE=0x00;
;PCODE: $00000113 VOL: 0
;PCODE: $00000114 VOL: 0
; 0000 00BF 
; 0000 00C0 // Port F initialization
; 0000 00C1 // Func7=In Func6=In Func5=In Func4=In Func3=In Func2=In Func1=In Func0=In
; 0000 00C2 // State7=T State6=T State5=T State4=T State3=T State2=T State1=T State0=T
; 0000 00C3 PORTF=0x00;
;PCODE: $00000115 VOL: 0
;PCODE: $00000116 VOL: 0
; 0000 00C4 DDRF=0x00;
;PCODE: $00000117 VOL: 0
;PCODE: $00000118 VOL: 0
; 0000 00C5 
; 0000 00C6 // Port G initialization
; 0000 00C7 // Func4=In Func3=In Func2=In Func1=In Func0=In
; 0000 00C8 // State4=T State3=T State2=T State1=T State0=T
; 0000 00C9 PORTG=0x00;
;PCODE: $00000119 VOL: 0
;PCODE: $0000011A VOL: 0
; 0000 00CA DDRG=0x00;
;PCODE: $0000011B VOL: 0
;PCODE: $0000011C VOL: 0
; 0000 00CB 
; 0000 00CC // Timer/Counter 0 initialization
; 0000 00CD // Clock source: System Clock
; 0000 00CE // Clock value: 11.719 kHz
; 0000 00CF // Mode: Normal top=0xFF
; 0000 00D0 // OC0 output: Disconnected
; 0000 00D1 ASSR=0x00;
;PCODE: $0000011D VOL: 0
;PCODE: $0000011E VOL: 0
; 0000 00D2 TCCR0=0x07;
;PCODE: $0000011F VOL: 0
;PCODE: $00000120 VOL: 0
; 0000 00D3 TCNT0=0x00;
;PCODE: $00000121 VOL: 0
;PCODE: $00000122 VOL: 0
; 0000 00D4 OCR0=0x00;
;PCODE: $00000123 VOL: 0
;PCODE: $00000124 VOL: 0
; 0000 00D5 
; 0000 00D6 // Timer/Counter 1 initialization
; 0000 00D7 // Clock source: System Clock
; 0000 00D8 // Clock value: 46.875 kHz
; 0000 00D9 // Mode: Fast PWM top=0x00FF
; 0000 00DA // OC1A output: Non-Inv.
; 0000 00DB // OC1B output: Non-Inv.
; 0000 00DC // OC1C output: Discon.
;   %`   5p ΍y Au+ύ L\  8"uS@j"P YY U z z=n+΋O OGu @@ hXCP@5 YYG  tv  a*[ " Њ@ |+@СI%a  }ъAu+ʋ dȍ1 S,v.ȃwȂwJ9 "puAtA9 u> [_^]  t P  ËU XESVPH3ۀl:ˀ @Pf ;Yuu j^V  E; t03AE+ E@@Wj 3Y} 3G9]ED 
t} f]؍EP EPS VS#uV@u t  37j@u  9]tuF@ 5@uY_^[@ І>C>VWhp3@`th\9̃@@JЋAuh@1j j @& R
3PG%@TSVW3Sh   `i$V +Au . <@ S@SVGYM@+] DfVE$P@3C< @&uTjruK ^M Vp@BƍD ^\ t
/tH;s@ V+W}ЋADA@9Ev M9Etu@SʋS r"T [ vQ!	!\A ?\uW^
BF-AUQP@jj h2h  A-	5u+j EEP jVhu0 @3("c+ 8	E`]DOEV@  u uB@z۾	tV!`PSP It 3@e39E$tZZPVAuPSWPR  t HtHt	j m j h  %p(jXM_ ^[貪 At. N.t3w 3v +փwF_ .@H _0@ F.  4(*))S" 39](+t'`IN!Nb*;r oO/jd,;v_$A 1!3+Ȋ@:u SV` `mcuW1S2 2aK"+tH tHt4#l;1jXB,59tpu$#`= W Pj@C_^MP[a6$c6Q	`V jVj!u`t `ePVV jEPh@	 W`e A3_@_`^EE V3+E@X UtH uY!uTE@: k( |;}@tEt 0!HVPQaHb@
u a/I P>S
  SH>y`	A
]CH!W=`=+ ƍMQS MQ#EDS j=@#%4"0m02mu3pPSVp21V;u`up5=<[aEt#P:p;Ytp`=B
VuYj,V3C Ytj;V# ;tZ@>"uUG0+ |0"u@	@xyǍN\0@,+PQV(貫6ƐdH^@.+ l$H uV臩Y`1u|j\	PS3S Ds(V ^ Ƌ6PBFu?S=DiVWD~Mjuu vP$73YY@u7 ;PEu  tC D|U]	p|iۡ33A\%TH1WH@Q=aFD\S?`91 P#ʀ}tQ0{O;u9w1E :u$Y ^ИAFF w3 Ƀt 	s@?^[0M	A? j h	@l@@e ]
ÉE e  ];A ;OQjY`3@33 uԉ}܉}@;]P*`*   s (tAC!sb <.TuX SE=eDE%Eb(|}D@ & p[   p	8Eؠ CpU@Ëe ME!`!DR@RtRHGRABR@jEP`QQ$}u }sdbf uEU3Ȁ։PFTT_s$1C@bAV]2U| ~jX@	h,  h+t*]= 2.E;1a	 jA  +İ 3ҹ P RPh  PA& S W  +PP5b
0}ǅ `  x
ux t'@ 
Ƅ Ƅ
 'u	5H_aMݡ&`
Ep_i`M]ch  հ#gQ0j RfE@`V7EAO,OOO8 
OG%GMS+ѽFP赣PJ3; Yt.CC0,C	 5\CDW0{@B_Pmc ^[aV0VЄ` hDUQAE|A@ V׻ VVj u
hTD V h, \P	vPPhC i X3 ^3@^ U( 8	M 3SVW} EE    V }؉E܉M uU UUU UUE 衢 3;Y uhxFh`  EWP  h   j j EP  P P343Z 3EPj(, l,- =T EPVSj u׀,e9 ugV!HVhE S u E EuVh	 MQP)VVh   -3  AW(YM܉*&h3 ϋ ȃu
^^Zc^ ^@#/./,B.uVh @OA Sj*F-AP.ܠA.B.Vh́rYYj`Q1E! K S 3 9}Yu'u@6E >u6v+jYY@M@_^[ o j,h@vr@ 3ۉ]] ]܋};@u3 SSj 9hH u  E؃(%S@S@;.tE
@ ]jjV B;@uJEPu;urh  @:eV Y;,tXttI@P  @;t6 `QjD}E"  M@1D E  EyËe3۠ X ?h(h `TV EVbA@*9]Ht	@59]`?; t9]uW謞`E`
 h(h8Gk@BiEЀܠ  e AQPA `/ȠP h`5l2`\!4 HQ PDhA2 OGGu@ءD.3X9b+3e+&+IhAT, )A3M@ YD LVW!j
YP}󐥤DB𥠭 EPh   j fPh g L:j^EPE` Pj |u@5`u4 u
9uuE_^ E@VWj
Ie f!j`3VEtPh`(@AY+jEPjtPh|!`YY3F(} !K#M _^n?' X` yu 3	@]+Q@QSWEc'3W`3b'!cV5@P } u;t$=Ku.ق;Yt!8SEbD	S@Y	a ^_,[`B>S PS @YtG ? u t3 VGj PNM xXh	YY@@F`^_[j h
,@jJ$=0]% >\<!SP 3ۊ@:@u+=raX9E 2+ЊAWj3Yp3@G9]ǅ D! t4f4`?&P0[  !PSRPVapp
2@ց#[3#37- aa jj jbCb;tuXNV3O^]e\HP8sV	QPW 2@0b`+py tVuD4VDWh , 0[tp P  M 3s=X MW	3 3҄t\V 0|9 00AF@7afWxt Xu3ARPp93 Gu^_#$1k:Џ:	E VuA MWxf  \ f_  jhPHIc}7u*3Pv;] @}sIU 
 M UAv 7 0Fu ʀ	]E뱈"tM@tph$aSAM3M$0	P!j h`ڰ&MTEX0 ҁ2ѓtWAn`M f9MZu A<E 8PE  u@X` 00uhP!EW QuP0E蚠O솼`)VWl	}R[TPPfǂ `D(%X u0\ u %  ܅    u| ` P@Qj3juVuR!jH `0Dc La `<kHk9µukWP.kWhHJ  03 ;ǣ,H ^Ph8A Ph(5AhjetI3T0h*xЪth|D$ 0
Jx9=
 ^tV9=Q
tN9=	tF9B=	t>9=qt69=t.9=!1t&9=t9=t9=Qt; @.= _á,  \3P1=(0 t!`*P `1 fF$"#%Р@ј#PofP]]< ah 4X
8G O$P3tL]0̂@3gDoPHc	yLK t]3]  U쀡P uuj u5	 ]QQSV5  W3WWj NE    WW֋ ;tTD Pʒ; YEt3SPR" rddR dEu 7Yj ^V  u	 t "E_^[VJ-SUWW2W2WCNWWh)W&W0`
Ã\
X
T
lhd
 D*T  ]96lDFdjfɡtBD	VJ" 0hBf3 jhXJ +3 u܉uu EPVE PVVj3GL@ E;uVu P}܃MʋE
 39 ut	u  vQQe  ύE@Pj E@j @h    ċu tU+ ֊@uA^3	 @	@	9u^tup: [Y$	x>E*|2A@8	BwVug@W H@@u+= v 3qS؀t\h @YY t;!	+Ƌȋ@ ʃƄ  PP!AuV[M@# 3bl  VW}ǅ`v QAD ʺ ;!<M*qf +A`@!+! A+ Ȁ\uobt\D@Pc&t"C$* u3F%@j\ P YYt  uH3c%s%W$$Ph R `hp jh)buMVa&V<ghd$0fD^tG`7) 
 M_dCA^7M@EVh3;ǅa9tVwQȉ`S u	A8SV~#;WsCP蝌Afj  wuh@Py WS
?
.uPPhA$C>QVQPP <D$DƄ5F    KH	H

S@r _# [t:y^a>"u3 ;]uDhP]apb] tPYt4 |A F<.u݋ E 38tFE }|* _U^  jhK`ZcZ E;t 0E E PjVhC'E;ƈ0u\ VLSS u܋=$IRuH]P%YA$@^	EOMQTAtPB77,E@" tu@jjPY3p0 fb`I3ab	.%.Ih@!`4-h$"̰> $5P. 8SxuW3@P4!%ðtP]t9A_t	9Q^t@@_u~ OW3jY }!E EE30}  j0EPhT 	j Eb00E̠ 8MM_¥q#)@EMr uZ BP3AhȀLQ HQ P pa   8#S@Vh 6   S`Slq/ {RWAi@&а%p Z0PBWNQ;V`9[WCG@sj @Y3k  f`=PL _h
 ׋ƀ8*uǅ1!pF > t>~u F=@ tVh	1A>?u( %#u'F_>,t@ uƂPpfu@uj> tGj )1KQЍRt&} t9ENx- ׌@ ASWR/t`P  thtPWh\ V"/ Vu 5+hDe, V(2A0PW;Աw8u19RU! th :"Wh : n1shl!SV5
V(P2@4  u/  o@tk31/; d	tQ rQt	!hP j1  a!bx /@-H!3P$/PPP#/t3
V Ƌ1`(P|^3GSVك,ƍtE ;MsH{WhQD ЅYt?3! +ˊC ΋ƍv!@!}  Uu x\0+  ;ur_EtK"jhPVI菀	PX#0ƅ ?a hq,@P0V@dlA[BS PE3PPzB uM M E0u ; Et^W} ;]t1V ^WV PS YYu E      u 9}u ƋW  WÂYF3; u_E!~E 9] tXEPj ShCh O ;ÉEu:   ;uhL Su PujS   5<B 39]^ [  UQQV uV e E E+EY sjz@ rW PhLV T } WV  6݀S_,E f$F h   h

t} t+h - DSV蹁G uu$VWpL tsMj.SAYYt:h ( D u*j\Vf' YY@@@SP EPp4U'@1DC D@mwwu [ nC6E^CQ   8	 @UWj"Y@Ex@|%    hpMy3tuSh@3؅taBV PH  `SVD@PPAt
ǅ#0B5W.@ nv[ M_^3} h\ h`!35Eʉ @3;us; uu@PQ@ @	GǅA#@dS4E    3@Ëe$h 	!	ۀ M M}| ŴF`,+SVW@`3 }Ыj MZj MY EЉEEP3hT 8 F3WE UUE0 E r u uU ;u@; WWW`$ HIQ``;tn!P EPA@ 8PVj hj `W U >}	 uUe pjY} 3t  t E }<r&3 "5Z ֋$ U `   B jp EC`[{DB,` 9$- -)3RjlQP:ǅ ><  `i X@ =8h`i j;PׁkVjUJPA`DW~Dh (  S\QJ(hAbPqP@" h`
 w h   <Ԡ:3? @Sh`h   VfiPb t[u/FfPSh
a	:P"	@
ajS4b#CPShl%&hW`,`UH@"3J Wh -fVZ/@Rv`"&>_^[xF΁TDS]sA W h, c3SFAdEb(`` 5@Dh( PA]4h$6PSPtuP	AaR|q}m- ehq=`,#Ht t} ujj 0~(88=1	P*!j31		W $| `}t6t@1~/%#
8 t
q
B@[w
PV@ W"DWCLGF1p3Zqp&MZU7 pr#TWəVt#N | 7VqV4@x` 5$0`9ÉuTSQkѠh?  9hh:p0YC}@3bEc0 PWhܠП Kc(u EPjWdh#P39}t	`;u
hP|
[
_^u"t@jAY]hNBq3h :Vp@ QV(0C 
wI$ Gh6Dh|a /hda (DhPa !h@a Dh0a ha Dha hA
 _^j]¨ 0 0 0 0 0 0 j4 p 0 un 0\sH
`0 g0 0 u0 0 |0 4 p n0  	VjUvYujXX!wP!mf f0   FEFпYF=	 Y5  p!s F53&^1Ãe 30Zi`0x0( VPM) 0)3GPhF0pC!рYDY=Q ׉EE FE^ } u2; EwvFj 
3YH;r	'   ;vYdPqt( 9Fv ׋N+Ea
;w"09Fu)	Б	 Sp5p^`>Q006PuCjQ $) } Wt|H$`  W j@ӋuE agApW=@u"6z0u]V5 Pp=mBA SQ:@S,M@V3P jA 01rD"u	&}EH} Cp Eɀ8 jh@O-s 39utdBtT!0D Ћu   u;3  C +9%E`huq R) M9 S tL8 V¼ WtA+ ; ut) > t97 P EP{ , 9EYYuF@<7 uCG u3_ ^[]  U ,8	 EE8{V u=j&@P EP  	% u }}uVE  p  %  M^onjQM SVW3 3uG @" uG u] ;;v;8 !A" ujZ;3s "FJuFuۀE   Et rSW3h     } q; Yu	j1%gPW uu < u'S Y^+[+3W    VSWWWE耔@tԍ@EPSW ut^ +tQ;wM Íp@ u+j  <MQ P fSuHv, HtW jz21R<솤 BwS]x V3}A\@
 	H`Pǂ (u@,PhlO 9YY@WjA3 }Y D !uhh
t@uDhd\ WVS7R Eth`!fd@j Y;wuhrE@th\	AQhX4T'@P*% 
 thL pB 3F_@^[lFS3 ; ]]ED >? =8 0EPSiB9 ]EtEu;Y tfMQEP;@	uEVzu ;t	PP YMu¡C_.ʡVC%C _E^BRh^m P 3uni  ;YY t4WUSWIE   ?.uGW: YG3u3 U"_!&kFX@?BM]  'B@    PF_jD0PDhVnahYYCSh @o28؃R# jPS<3@` ( j6@`,!@ namet
F; r馠!	    #" #  j V	Ac;aj
P\EA! H  Aa@ f	fX Yà j#=`!R! T VCDؠ  : +;ugb!^suD!!	Ca D cLQǅAP` A#T _+	@Y[~^@x HBYaX XPjj @hQhPh"A3BaSaB!=P" ht@	"1@	tS$h0闀1ƅ  F:@F ChaVF|yj&#M>ÀZ~ uh5_3$H1h4 )Vj`hQ)S*R @Ya^g!UVB0U9Td t3@gVP	QShR@nAx;þ@  t8UlQ0pP9tq;u0 Vh"}@^M[f	SPhhAÆ
ŀa ShXPypzC;tVh2/xpe! |ph -T-0P謹P@PPLj@gTj|v= $`".Z4ES 3ۃ =dDVW0P ( )@X 08 P39C@@<	aaXB	t|8µQ tnaaVhS5QPhiyt`Cx @:uS@R+%20Q5tHe:@t8u!Q @ǅaB !  pGPh`9Ar ot	Ot3C@ etEu mtMt .t 0|ր9ph .P!@]EuffEau!aM0 x(rK0W}}pEuf<pb1hMQWWVPE`HuV$h\&GSjE  Ksjva` ^Eau&pExcQ8ȣVM)QP3U&ܱ"=Bjh *  ?"V  hu8u  QVq:_b@BV(M23жPWh`hUcP*3 WpZ; ǉEtPhTB	ްA!Sj^VВEPVWh0uu`ճ E@PRWh}=40fSDE0 P0i6Pu
 9uu9u te }0t	 fp%У` ` `
 Mf3f% a EE PPbF[џ1'F`0`p
;P
	Q	W0
]8p
HT h`dѿH 2 0
  jY"jz V @fYj	#3f YjyD1Yj
  YQJjwYjwUd2@ YTKjvYf3S" \ jSRpf. t9
VW@8t)CA@|@ t
ǅ3( Mʻ _^[E `  U<	   8	 S QE E3SP5 |j H @ VW=   SV@PSxPׅ4 4j
6f k6 R:a):
:   q
Rto3
Sl|:tNha:!色Jq_$u}h V ChD;t(rQP:uPh $ YYqT Du  Pht)g7hP%

h  PSju"(Ph Ĉt8DDNPL}q_ ^M3[]JDVÍWjAH hhWr h ̗ EDQ @(Ph@#RD#LRj 1_H^9K1D1 M23 t1@LuuQG E %D QMBA}@T3 ;t  =uaE  `WAEh
݀9= uh@ BSWYAIVdX\ɺ
@e h4WjW x ;ǣ $htN9= 0	th j``=uhB;@!0h h95a E=!a3@3EnQORZvG! EYYu0 뀿`Y@ IHZaCHSVW 3VVjV u"]@j
3Y }EȍE@+PE@h E _}ܨ Kf " @:{V3V hWV ~;ƣ\iue ʋ=X }t5EB; #`)`VV`V ;A xuEELE`hx 	xbǃl @jYD@	} jY"e  fL }f	BA3ۡkC\AE Y YEEP h  j EPhm&: ÅJ=EPu)P!؀@u=`u3`B
u$@ 3; u{EM \$E@E,,`u[`  #tMQPt3@CE  MPD  Y YCulA }	 YY"M[ԅXMä#,S6EVW Eu]  jUYAbz3P ƅa ` @f3Wh  8PVSR5@p"(0%AuV hXYGh<P P h vn)039qLw, 3G;vfr S0aY[W5 3 8 tW;
tpa@rtT΋41 < 	tP  t-uY3##P`XtT;v6Cs	4@CF;vK0
u"
t<,uD@CC1p"@ 3` $4BX!4YD}T3p 3CTE ]]]fYlEYE3SE3upF,PW5,u543)WuR;YYt7P2 E SSW\HEB#PPM 	 u,W"`+Es,[茿UT	PjqWhAZ?uDE4A0 PWh u J<pg 3p)}u0Nu	M<G#%fQMuPh.Zh1LX;tPDh脳Bt!jh |jVhD5a3Ft	!_1<^dV5XW3@EPW u} u}E)aր']pW@SPp0;YtJ!QHp'j$Z Y3tj  uES2Y[E_0^j}`[0@CP ǍP @u +9E9cH@%`A
V (؅ Y]1Ӌ+׊S[D P\  </t$<-t Wh(
V謕#铀Ee `6 Eti}P 9
S GP3P!"SAFVE@  @ F
"D <!u!u		+ tj 芢7@=u  -Y@j3 @[3_^]Dq[Q=0Xhԍ[z<|P(  Cࢾ`PV00HեuPX"c`@jRbaTj YQ h@ )MhA2ީ tMWV#HPb + WVSV4E%|0]
h00i0bhQCV@40dit%4j| qtB@% Pp0	-0
 ]k$!]PuPp5!9   
9Ez 0y3
 xtHXt C0|9  * a|f3DA|FBVBV
QSw]u3 P$ V5 W SSjuS S֋;u 3G?P j@$  ;ÉEtWPj uu  > ]E_^ [ U VuW }EPVW 耋| uE+ VP\  _^]  j@h8b R3ۉ] ܉]] EPSh  <  $   `i X -`i Sh  h
j:81h $\ fYY J(   Wj3Sh @  Vj;0  WЀE] ;t,VP̂Љ EPVha  Wh  ' Mr   E   E3@Ë eu 33o8׬j F̀h$eQ{unytGh9Wо!t+VIL 0 6E<PWh`VAo@WhhAk @^P  Z^NT^n  ]؉]̍E Ph  SWh@/ƍ H@:u +MQS MQS #Put=@7@tPh_jQ EHt~ t
uhh<E@\ MQUPh"0@G@j"O@V@Wj
@% _u	F	 uU Ph^Ū@eu6lM"   Pha`YY9]tZ 
V ;ڀ`(`D`h]`A~=D=N@5,R0=' WcLoS@h
Bh DPC
b%uh ] '`% uatWhX$mhWhZ\ #>S~ 
g!
BATt<B|!i#
90]t'\M<HÒ@Acf(Wh0A&BRg[ `YY37h(E-dA-0@h A@3F	`<0 EQVWEPh ij h@ iu@A@E FJW!hDVL@VH_^jhxc hdG Pgd&   QQL#  8	=SVWEȉ` n LĀhFlؠ*<@#I*hhD ϧvS 詠Ҕu ⟄ @Y@;ujCEBAAVD@	CK`P@Y

@  Hs!Р 9 H_a  4Sh Hg E!`j@Y3@ fdh     PaW>QUDD@  B1Pa vSj0	Pja4uw9uo 2 ;sV	"`?P7dd 9=h(HPLr$9`uǅ 	R=Pj&'}	´P QSSPPhDpAh )ؑ)ǐ9]!Qa3Vh,)]xP@:pkP Q @PSu@ trY`S@X1tOqPSW&5V(h N ujEP8Ј80` " _0I
4ht R A03M ?ЍME£ ң W39=teEa@VPEPD |DVh借 I50IP  ;ttV;Vhiq@ǣR2b'^_IQ0GHhZJD@tShXR@@؅t>BAHWG2Y+pPqp |0\u@;\uCR SVKE03c3@}ufN  8v!uh,d0
`2 xOH ;M	@VQ21PQ 
}VJ̑P@jXEQ_}1h w3!u$VP}𽸐B	Pu$51 օ ֋Q   (_P^de@ S]& eSUe}WhtQ
@ RS
|_u@8 述`= "@%tt%  @*8%QV39utFn$j(@H}$h1y(VnVA0 P &u /0a mhj+;ǉ}tW   9}u	33Vhhe0 !!A+w9~<F@@@SP1 ;YtWNAAP# ʃ`vFpPPS`Ƞ `{Y Uuupho YYS4Y}[;5AQ@3`{	Ƌ^g2;W^u 1u`u3ShxE;thC ;ta= jP` ;ƉEt<PD:5Ps9ut+j` !`
a ;Y|pųP\E*! 3([_9A} W3h g u8` YYu!J Whf w 2WhMqw*-	qCbAYpMQʠ`Lt!WhPh	@ ]ÍB`Dǋ=MQV MQV#à@tuwbR23҄0#D0	1B Y u!Suu uhfhD  襞 K   EPVE Pj S  uׅtPlln l    V  u G}uA=  j j 6 |@E RP B؅ Y uSVa V Yw  j,V YYt   j;V	ƍP @u+ t>"u |0"u L0HPF@PV:DsWtuj\V-(iuxe }SRA\ V̀RYa&W%13_^[  U S P 3Shg Չ]< Sh   `iV SSSEP@u3 kWV eY:P>I; YtKEπ+Ή}O Q@ HQ- 胗 0$8	 SVuW E@	 j@3;󈄝@Y fǅC@ @S VoHjF$% uȀPVh"<Jw@Qh  &W 5CQ@t5 Z!PjK 8C=C .Q&h0@(W!S`ǉFA1(A5Vh( YY3M P<EVh%@	VAL#D@i,i@WPt?%Y=p@j@<A
i 3 EG a=A!S3`	j h#Pdj NhN`%@	fSjcQ`"
S`P	@Oj[%A@ _^C%TE`K}NbJ } tD,+Y@ aA$5 iPWM>"DhBLBVLu @_`$P$hA53^]sa[W}Wh [:ǄnE#=(scIh2@W `Zu3 0V50W֐h t>D, tjj 3@)W !uet u3F ^M_2:Q jhh@5=EPE` P R]_) 	t.$e j  u	Ëe3Mu܈{`!	\j$h^``uF 3G	}E}ЉEB`*EPKa EA$EF! u`BBEC@B|XE}\r/hEP,6YYu3`P0 @43 ׉V$h\$h$<$h;`EW`3@;}@;@9MCE ;t}@     O;s Mu؍F@V}Wu PMuԋF<af>M@Zu-`
; Ms"8PE   ufxPLu@2hpR Gte  u3Na0R7QQ j0 C]P!Mj "; Fu)j8`!sSvQ sB ? h,ph`*eE0@ġu3ۉؠ (VhaRP'YY-mx2p8,pP8V诚?t@:R0
 E:qW!c bt H\; S;jU`Qh @;̠qSAW5L;Ihul:D~a}@uW QSa P6Q	H @Pc
ǅ 1	brCRM 6Z9^,t~a[*S!QSPrNFpwIZ3KVP
ːY P\Z!7suCГPp!`su"N ;Fu ~! :u tY _ uAAGG u3E	Fp ~ tE^{:
A:Gt#uI͓ F!FM	H T)"Z[X4ZFTRS VWjYi}0T EPh   PhN]0PMc5 EPp
A =]A *t=u'uPt.WElt}&ae
W0@ǋ g^[迊3@ò$L& YY!t1T6`1@EPBP$t&@
n(^uGW<7 PNP DhLV# P7Wp hhDʰݰj_ 39]t	0ubV21V5(9W`TPb փDd v= h  <@	 8 ˒ 4 Œ H  @  L  D * P  53;У0@u9h`	w	vWhlPhk̲5!0 $` 1hadechpfX7bh@(,` 耟 h4PPtyh( q5ATpX \jR`*dhlY` ha܁1h q5ATlDdj  hHJ ;ã   h8A Ph(5A`hj DeDtDI ~FTTF"""""xU5th|UD$ Hx9T tV9RtN9BMtF9Ht>9Ct69!>t.99t&94t9/t9*t;0( uhj a t)hx% 9 u
$;t
 hlEhH@Vh80h hM5lBHtDiD(1(hd}PuhA	5֣p-hAA6bh4 @Dwu&h rht th`M_^[ Y-Ë U$ 8	SVW Pl} 3ۉE] f详 tE@     E Ph  Sh4h     uz5@E PSEPS(Wu]@Ou /YMQPE	֍EH @:u+PPu y0"b@!BA@7Ei8x,8X8@4 EEԋE EЋEWEȋEL E؋E$Wh E݀ SV  V `iShu S  u3@VSh Sk 5 Whj Sj j uuh u.aWh(uPWhx h}  uhFt
f % <0} @Sh| ۤ4h#d `~Whj Y3j Z }!E@Uܾ `DF  }!
aWEEM UE 0 u  Yv
}0 }  E؉EtME  BEčEP詬!P 4tPaWSh\ 
`(0 	-/};V%a1
T
3^B[F_H*ED  BbKV W   PP 3M teWEPP  Bj0詠BdC"u#"1!P sPF S   @<u.Z WN_@^Q"Q@s( M] X3M  
 v%IbuEQ h$  @\mW!@ hW VӠMh(hhhU;0 ' 
	 }T? bbbb`  D B  % V 3$hHa|@#EV0h${  }!t^W}GP}@u4d ShW h1WVbhQWz P@hP茆0Nd3 IP.V  WI VuWBQȂ  j3YA 3p j_t HP ǅa0Q@RR Q P ǅP ǅܐ d  j@$H stSSP2PV{0)7K10u
ǅq FRQ 0"QzHE9`)j0	Yap,p1󫋒(0 hP`Pp'  yuTE (Y 0$P PS) 2;uS$p
TpVr mmCspn|P PWSǅ1 !sO@A&8SV	PB1E}0loeEpF/OGC$|cuǅ1%A !9b@,t`BpS%uSS.-W339=.@WhDP}v$B(P (BWWjW(jh$  t"5@0	舰PVDWAAj6_^[D$a j hpDG'3u95t: ~EP@ j hE D 2H@up<u0 /&  E`BËe蠐`$hx3pK 3M$ c WxP}@  EPj _u*hCh$dnup}Ph pPhRIYvfFq.0 7 gh-" @p VP8S Wҧ* h DP6)h.`<SW芛bRur> Ehj<PSPaPRrk.00xap3P@WF_@^[t@Z"~b+Wh1p*N 
PWV覑uC#E3 9EEz> hQ@EWtVCF ucp
 7H!
xcU@
A Ej
c 3 pQ@!p PSB R` 
<!#hoЦYYǅqQB!N-0<`6|PSh0 8 1 :Ph4!0t8  ujz Sh @,j1! @DFpPuN 3Pm2hpAТip5H S Qj'M QPօ      h do WP#0H @:u+ S dQPa:P    S P订   0,  h 6HPj/ $  u$9F EL  x`h  ^ rPLw1 K)- h!*W XLu h< h d"mx @:ui+Ǒpy)kQPapK0(\64c9 jXh@n}|7}LUծC%NU%tTTN!T2Tt |KC.CFh>{!@3@L@P8_^[tFVB]tCo!bMB   U8   8	S 3ۉEE VWBB@A9A-@v39	SA   fs@@Pu	?"6f9q @`vA	W hxp5|@jbt@lSVa}j2ǅ D (!MH`AGuh(@hp`
hA PcjWZ |Gf9@Yc  	 0uD'`(Ga(/://@/W3W!/W젡P  D` ;tPh qbfyYY
ۀ%D  SP;Y`WSWJ %f9;VǅAA(tW@,aPVhVKA Wj	a1<tVhRaxV芀!VtF,>Yu^S TY[b&_&UU 2 S]Vu(} 3@ OA@QPjQ Pj
VSǅ@GXt' thsBBF& WhlSh` !@GGj j[`c  j
vРtaDh0	w;h  jVS8@AudhDQX  j  h PAw %o`4<~ O΋@	`h.oA( (`l {	`  ̠h  :h r )jUd-pP@@J `@P?vR;@C4a`  VSjP hauQ@ T?R)u	;Y鿠!P@	 Tg1

V!R@K1SD@lWǅ|p  ؄Вtw!( tne. p!sr>Dec0rXhS<i4AQWH1hxt`IT10d1v b`6PVS{U,tj!4P7(#gAQp +tFOFtqQRFD1M_ 3^@[buq]u]CutE3P3Sa htP9PG SdDtH	Cpu j R+ EQHt)cPW5xPs͓  @u3C
^[T!PhRPes53tV|R"M0UUUE0V3Ӳ *RQ R R P 9WjJY3R $Rǅ1aCǅB    8!a4 G4tV
Dar#YD`DT   PohDuqF&6dTrQPrVǅ *GF7	p`}u6h[Vj[t=p(h Vht%p VU5GS^H@'R鶼 9!Fu??jQՄP P+` ǌP 
 Z 39 *d"bT`8SU  K1npr6@!dt)fAt (h h[ yWs'`1(PRRu	 u t`t hZ.ZZo`T1. g9=	u
ȀIКW#P蟀9=u8h12P5	軏a:tWW2jW *  .+qNv.LL1A7&15 L_BLAL h	pBw6@E @P pÝ (P ;u M B  j@Y3 ǅ   (x D<P"0 $@t	"@t| * 
S   WPxl lu  Ph4w jRS 00<00
^ usil vP5xj   "Wy  \i;t+S5 QP~@t>h/mY Y3"9mRh @  8S 3;@rXYtZ8tLTVh D5| Vo ƍP@ :u+t 8uǅr VhlMG0bONW1 ]cU!6 E  p #3@ËeE@v蕀3ۉM@L t	@9Tt"UW9WN}W	 `G,Dd@Cvu'3QwhԀ+KSJ
+9PSo9B1p|	q1ri3GEhǍ(P# ⫁BC܌@aVhAkjY$=AA3Fu} `h`s	6KAs35 |`(+  S"K  `*C@a
u5h		5R@D9a SS!uS[ǅ E"PSSVX)G| $f( -b*jD ؕ#E@A)iA ui"18h}PVe:! 6t `;B&*"е 0/E-ఢ$hhb?B=|d|euM|c|.(E"0p %U츔   `B8`ESVWp Q
EES S	   ?=`Sc P :PׅBO ShA@cj@V/agj	I `>-te@ Lg-b@Pj@h  1 `
%S  h !;e`x 'uE8x 3B`jSW8dFDh 5G@"SA8=@  d  'u8$9qdfb# b5 hDw2A<A
!+%hP` YYtc@2rhfS"	hPR  #S&=׃ztצrer@` t<
4, q60+VRPO S?$"$I$.9]P4Fv 0VPD =dLt_4'h0#̅5g
5p!RǁslQ+KpP!H&t2u%tJ̀3P* b@t3?QW`9ǅ`A M _ ^[GPv&r	hR,Ld0΋1CBpD 2BVW!Bt̗ doWA)"BSPA	PJbA SX@ uj 1R+pRQrsu 

2c
>hWq
A{Q{h
ݖ@FW		nl@B	4
+

~
TU2s"Pr
PboN!B
h%>`.46BPj hq`K"&ʕI/ 5t] nC-	PyOeE{CCj	C[)!1_^^  '} t!i;Erw }$ u5wU; Uu3% v3@3 3@9M v W}; tA;M r 3_] ,eTpp2S`-
 Phpc3ShD h*ǅP  (b t] #HPh@{ SYV2Tfu	"tjBPjS1,p_ P0ht@ga #6RH   jShjhCGAǅq 0؋ATVuFs 9 @|q  vc3 
Y2 hhB	/haPŹ$1PA{	F| 3}#&3rX F;à< t^[ty#Q' MB#Vuu*}@uVh	_(^]Z 0 V`# j   ;Sj\P+tuO Vhyh>  h` ]R!o)	?  [ PVWk  }L Vhyh ?  hx 25  օ     Rf> f f ^ M_^   UQS] V3;W ut3} EPWu ?@}Ph<z  	EshW q  p )O;s "ۋM4 t+O; ~\t \F t[}(v	.] ]7X   8	 EES 83V 39]Wǅ4    t 9]  Dh    hkl KSSjSjh$ D<  #@ Q   VHP%  9HـS@dwnɀ   9L  1E@
+ǊBT tP9]9]Hh )IX@
PXh @@hP}@SSS7L0S.PVPH@;t
7th3@ 3@ڀh@WS@R X h`  pW؀A.Bh'* @duP$A0Sj{T@uh n[l@(=(\vǅ S׃`vPT;ptSn$A  C u.dr %pƵu NY S3D T, QA==B[t!= u(Vtu3G馅!!ocPhLaZ @YYt^h`i V<@! tIj\VYY0 g[VX[t @V$9
2j@A$0B rǋM_^P[wP0GtP込a5`LCoh`i  B-43 @@uSVW OGGuSfm j S!Y  fPS w (*DAJA q: utVWuFFG!3@Rt	u` 0
+BSu
jPM0VbWA>d`AS/0!0#0VW}W徠4`uT#FuI E!u!u!u5 S EEPj WEE  fE Wh#t,W
 j  h({ 3uuǍH @u+ |8_u03<͍E`PW w T; EPEPh u  "3ɋE P@3 ֋uVE 	  M ,E  E Ëeu h A^(A  ]A h  WL	 @ZYY$u@(JKS t	 h  h*z]A(0htXXhP@2 tHEVW5!Ћ؉]ԆhiV0?3U}v6 Q`"`vQQVEPK譿Q;t2uuX@N E;wu ;Vv 3^q!} u$E0@uJhpDTu)Q],mAE%,0T"GBbP8b /P@V3Ph^D`R ؕR R P =0
BсS rP jVWW=57@P@aj j ׋
=1Q2SVV^"Dmp5=  t	PVh{@Qmh%  hؐ$h@ `%\jbuXǅQ0 @1s2!` PUaVś `D]Dp$D3۾  ǅP PLf 8 A ƅp ƅ` 初` ƅP ƅB` Oƅ` ƅ` ƅ` n`@uQh W"Y%9
89tQx x t~9|q v6Qax~SaQQP{+1e0hh }*SV@ WP!P 'h 4|Vu!VRpDEs^{ ,MSR3S,QP~ }!tUVH58 Wq*D,9u<JD2PŐDHSWTjP u_0^MЧ[Z  U '  pU	j	S(WA$ vaut.Whl}b&ϰDXmpSQ 0`h-p`q@uWh& (P j?QWhܥ cFPOQ'D 0¾ X I h*/	)pVs	C  Pru11!uP06BWYj\"AmYt 	0p \SW谌Eq	Vh0
8Pݠ;2)hyI4h`\IYY#؋tA@(@> @P@Z VW SS6"Qj PdSS` |r`hB$g0dP`tOVp0:u 0.R+ K"PR!ǅ^uDSPhRI$ORвa"6[f@C ڂ@@xj,D 5| 3"0D	P %jx@pC@dPP0%	Em ( 9"`)="VS	x   Sh P PSI8 xR xj
| >2~h `NB ;tPh
XH; $YYiSS t(x 	 8tuP!  ! PQh0GMl$"9tHpQQ D;Ѐ 5H  R} k9U = dD hvh8  h 
P ytP @:uSč8Q+^P5*օuFkWi l<@; KS hSS5O Xux=xjP aAbh}TP艦TOP+JR+ n8؀&kt Pbm  !a_^[taMr  h$	AT ~ 8	E E3ۉ	W|@6(h M@; VPyI 9mAE}uVnGl PAc;r@p @:u+PSR@oQA o oEh^K% [bĀ]@$t@ uJ}uDPJ9t&Sh@ &STh AMJa
ǅ@ 9AujZ@>'ui  @Z=e Ea!.R"	u+#B,t蹀Kw`xa` }6E쀋  Р 3@ËeRhaCbM!r M   U bCS]E EV3;މW`8n  u P Wh?  hp@A >6
; - Su
I }VWh!0 Hth	@xPWh@3pI࣠P`cmPM!zAS&	`׋9 PSjh    \ uqgmd	!	$	( T2&hHHPWh"Hm"1``(WTh,,!!M._^[;/;D/  =VW}
a>%:lVhR":oK!: !? :O d.."7hd`WZj#`#w<wVh^	$	W&S=#M}TPVha ?& SPQ,Jh!D{G&XVhU& SVhmB%!!&%%<  %"a`w@b n!Vh"  -!VC`"tc2|<p@ 3W   W`i8S?0`ipa  @w;Wh!!A	``"Sbq&p X3P @uh 41hܥv	Yah1: }B= Hk %h(USp
$CY39FA: ;2p VjSQQ'  j Ű#s P XabMa! 9*A$Aa=	t}wp92whr&`S;qwXJr 9uOSuFG4,uh23-8" YYZ S" @	3hF([ _@$pPF@L _uzcY)tyVP%0SR$%`HtJ@ܰh:C5B/3A 9tu$(Ka
PhxAC2394 _[MP^)q7eJDt7j 7PJ *E7В  qK6 E7 F7f)0`7DPjH SW 3WgR8i3A2jEu69}/R@P$7	7r@`
?d"W"fQ=T81 5bmbJ㪫 +0YYu/TV<P)"V3PGPt+Tj *ip[z+tA
}:`h?GeQuİt|h 0C"ka  0a9eh,:eS￡R@"(pƢ)0-FD")H$t"͏&&npMA2@ 3⚃iSVcaaVhP3I5@%gDqj`R` ЅO =0	  EPV' } t    u9Et/ R ! rw	@ `	trjphX	AX0WVH @4W1gW  Q	Va?P t9h :,sj WV4stąh J?0YYcuWuh؁(O5Au(h@u!>q=a thlA@P2hD j$B   Ph >YY M_^[-   U(   8	S V39 W}E  
u >9]    tVWX, ,  ܍ + ׊@@u=  S VjS 3H:Q	   I>vh Pj  ?j j"SP@׃ t 33Ɋ;@hA ujVVPL >uGPt2 ;t7PQkhdo33V=QP#P53H %jY=  $7+V H =؀,=d ބ&ڄhĀV舫<$h 5tjtfLA$AP]  QC4PhI?.B?	% H3ÑÑME PEPh ku ]	 QQESV ;Wt +ȊƍP+	\G e 0BEf*p  XtuuIJ\
h@5W RYYthV®uVt)u  E9Ep |"6҃AA\ S]'Pj 5`Tbt  [   V	uDPhG~`  IƄ *[:W/j@^	auC	PhI`:a<CJ!NQcBWuSWQ |0@"u0!xFP#Q#Z!%^d`MA#R_[JBFuW#SQ@)`@h` @.VRb5=S֋=@g":j$0	 
G 	Sc } u>a&@"Gt' .hHms  #2c*jj! oJ V@K3E	 t^? 0tYWILܠ`ett@PSW"N  -bW,AM9upAF .uJ!CeL`]@ht+bbtWh(M8M訑FC~! ҋ tV 13AJ0u^â@BM t HʍGe`S+V WU' R@a !J H9Mr; w=Hс@?9Ur)w+l@t xxu3t ҃ t}  @;u3
˃ E H@@S+@VW@։u MEA!;ǍXT ]taB rHwCH;r7w2.3

H1u|   ;ǉ]u,tjZPVI Ѕ@UB@Bθ :z Jt0!@r a zˋ] @:#M	A	$ ;uY ][t 1u#߉^!z	A э";w!xpZ  Ft92u*9u BJ0ԋ AFV @Qu	
`N~0( UJV3  F;tWz  u_2D ;^u3*<t $;uJD_ B "eua7 :FSQ t*u:8 u8Fu 8Fu8F	 uFPT H؃
7h4j9h"` 41_^[DTZEEEQo V̒  Wܒ  ,30jwh  UR R R R eR P W 	VjxhhG"
 ;t; DtzhH-	Vj|h,QP1
Vj}h! 9
t,Eq Vh r30*uVh-h! 0!tq Vh*PVhAhABE$PVThqLqpu(Vh!0!>o q VhjN)A
9BWPX }WVhr[P@h7jh L	B̋!ARhXPrQQt.)aQPSz(!g%`0hE@P}  t(j  axpyVhtaӀ"vte8 t`Ҹ@ǐ1]Ӓ@jAXA@s>$g0l(gVh0ZjTP*G-=	t QVhQ Pa1A3<qrPV	Azuupq_%S*F Ϡ}hΌ 90PVhQ. vSPYX   !w0Њ;t1
"hH`>H8  t@ ƅԏDB(hԅ͐ 7&RPQVP
q+W,$ty <h@3;}-*I{QuD,p0ph@e1% 91>tV!3?
$)7,Q2=A#u$4C0UU(R<VIQQa?TAl PQ; }WVhO   h\j 9tl P ; tP? tK@h  l. YYW Zu4 PPY^ ac 4 Aa .j1 /Vhk..B4.Szj j| @ta < P t   PM_^ [; 0 U;8	 S]VW} EE V!3hO * -uVhR | 	@tH#SVh	,		uVh	́!z 	3ۃ  ;t-8t)=PW) tPVh O0EG 9]D t0@\uBSSx Du AA,@7ۿ  tf; taA t(=PW!@Vh@hpA    "AS$ L}(VhށPm̀؅U	_XS芉 ^,lKh0@+韆)P@ 1#(@P7VhT@@n=j8P@׃} t@C tj A
װ@@n<Vhʬ}L){ůl	  ¯UMSBVW3  3  3RFQD BԠ ́JĢ  b  L @;ÉwB  Ѐ(=8 G'A!4`Lc D0s(@&hXhO", &*AU 4SV+PB)TA@! /d#uc]a@$N`jI$!qoPj&au*#	h		r)k[ A׍0Pj268Pj8Pj#`SA 

	
Pj
&GBPj&-n7>P"GAt{h @j 8X`~A,Aa:Rh'h<ELatǅ!SX$CE!/|I!/7("/bXA""]t)B)  4;Dh}`NPHaP`a'"9"u!U	K?ShY hL W 3}*`$]
!yp ;txD D/ȱDDMt-E u&}  t+ȋ ;u Muau 3@3@]+$+Ȋ@:u@6/  T;P5aV@ut5.$+;wrq3U^3," +:w
rRWqwPcIaS0VWt9`p ;֋< wr;w;rw 
> O tGrwOquOGOBr
wO: OO@rs@w
O BuLjh`! ,3}H@@@$(M03}uuuGbU-IXΐ WN, 3F9uyp6 7Z8PF Ye	3Pȅ(dj4	נE)u	Ы	W3	Up5ZQSW֋?H1aUJyHY/M9u u}0 9}u+u&h!!0 Ëe)hlQPYY
`!E y   U0 Z0 0 0 B00 D
䖠= @QV	×]QEjPdȰ R@) mA:Pn @fa3S f P`e jNktb"hvlh P2pSSPbkjnSSfet
2DPl}u&3;duhT :Fh;ÈGp	s"AoƋP؍@3T ۥYY +|#Qg RrabSPzT9j0p3C0u1quP^@
;uBMh
[y_^y hT&h4d 	#0' ¬P  a ` B PV PjS=  ׅtLf tB |  Sj   u'@ P Rh Pd +  ft 'Squ==& =YYp  o Ct"Phh! < rPhp!	 7jS8 dB܀-vjY	f!i)c )e `O  A {\@QP n# t̀t(QJu8}w&7$nh e
P ЉPACPMhC;.!Au^EAn@m    }4T	@{YYZ!j_J_5@j
D+jW#du^>uw dB*(d	(BNRBehHA@YYTu*S!3@@ËeEMLu t@q)M 0  U H  8*VW}; Vj j E Ȣ@u@Qh@ @tSԑP,W`n@ {"D!(PuUa53G 6"3}hh	z	!}@	hD!h TB .̍
QPdbu`dhZ%@ I"ą  Pjb%A84vM"胠.YYuPbdedN`TMPju!ᕋGM
u'L#%C"gL'Bؠ,a[M_^ƺɀC hl	  h@!@<ƽDE E ]E A=@t  CAc@I @2`c h`)HjaF aHhܐAF a
* 㑒[A {@?@,h|.E	%BPAAY9 I@hDrA.BLܡaK3C9] u?t tdh
#|YYN(hx@D+dhB%asHe4%"QBE .E feufEؠxu
f9E@t_@*EGXHD@dubluAQlt(D0<L 1  `J`C"T8RapnnpF[(g2,w( ^LPj0:Q.(:E0@ r`3eBPVe#H-)3 ;EWW`WWGQb/P 1C RH90CQ0 j$j9uvUjapPR+bh"QЍ;-h#NTj=KhX1+]{2I;jQ	j=jjL
jSj@{QjIHVOQАEj3P CQh`P0OYǅp-WQU=Qnhh"F,"K$"},@D(
hē,' QO	aUVgsqutJh|bJeB@-eRtzT~ p!h R40e3W33;D f9L9 4h@CHQQ n
yQPj3oQQhjQ
@j	j0 P# t0  tG 5@%0P#Ќ PV 0 c  }A4쒠[/ 5ԱŰ}wpΰ43h0207P:!!	qƄp  u.
u4hD gt)h2c  	,3e[P`鬚&<SRmȷ7t)Y DK3a1$q	bb92t#or!-tu[3		px-4$T܁7 YYj 0։؃}	u3;lu.$R3ۑ06		aD7Āfb9O Qt`Xj_@гVt%/ WHa X Vu tFf> YDu5
ɀj,  }y`0t&`0xH ^P~TF@Nu
 
b@s!%a8 c@8	@`&Y 8wVWp} f}  fA 8\] BA8: uy8B;s'q4; s+ǉ ;w 2] A8	@Y8 uf_^ M [I  SVW jVX F$F$ 0=3 C@; \rNTV P3Ʌ _F^[ ËыJ$    VW 3 d
  `B>"nj>Y3|%x_^ 33@A XA\A` Q0Q AL QDQHA (Q4Q,ÀUQQ  3;׉Uى}  3B9SLg 9{(t1 ˉ{(]   t jZ0OC C4{4 {HuC @tC; Cs@C$Hb+j"

"CH.(" -C &Du
 C CH tt@u  -uE   K$ Q  	  CL 3V9 }~VsD; u|u;t S0ujV ڀ, %uWU$
4@$; c) sD)uu 9{D uK@	 u
@6.g K0;t
 C+E 	CU$P@ :E _^[ÃyHnAVp ;qw$3Ҋ pWx @A q"Љ  (P  PW 8cVp;pr	@,' PS3ۊ~ 3Ɋʂ ىp P@҉+JG	 [^_V 0j Y+sH^UV qW< ;QvR! ;}S Q@F; |[Q#6+_^]AA ;Ar3qXB_XG@P CD O u_3^@[A$SV  ^MNM܋N MN;M@W ~EM쀉U4 DF d}&     U؅ t
  !   |;}   0We*P@w1 	UGG-   ; 0000 010B       PcDbg("<>-----WifiLink is activated and ready-----<>");
                +
00024d e0a4     +LDI R26 , LOW ( 2 * _0x0 + ( 158 ) )
00024e e0b1     +LDI R27 , HIGH ( 2 * _0x0 + ( 158 ) )
                 	__POINTW2FN _0x0,158
00024f deb8      	RCALL _PcDbg
                 ; 0000 010C 
                 ; 0000 010D while (1)
                 _0x5C:
                 ; 0000 010E       {
                 ; 0000 010F       // Place your code here
                 ; 0000 0110         char str[32] = "";
                 ; 0000 0111         if(nrf24_dataReady())
000250 97a0      	SBIW R28,32
000251 e280      	LDI  R24,32
000252 e0a0      	LDI  R26,LOW(0)
000253 e0b0      	LDI  R27,HIGH(0)
000254 e4e6      	LDI  R30,LOW(_0x5F*2)
000255 e0f0      	LDI  R31,HIGH(_0x5F*2)
000256 d200      	RCALL __INITLOCB
                 ;	str -> Y+0
000257 df0c      	RCALL _nrf24_dataReady
000258 30e0      	CPI  R30,0
000259 f081      	BREQ _0x60
                 ; 0000 0112         {
                 ; 0000 0113          PORTD.3 = 1;
00025a 9a93      	SBI  0x12,3
                 ; 0000 0114          CurrentPayLoad = nrf24_dynamicpayload_length();
00025b def5      	RCALL _nrf24_dynamicpayload_length
00025c 2e5e      	MOV  R5,R30
                 ; 0000 0115          if(CurrentPayLoad > 32)PcDbg("RXPayload length Error");
00025d e2e0      	LDI  R30,LOW(32)
00025e 15e5      	CP   R30,R5
00025f f418      	BRSH _0x63
                +
000260 e3a2     +LDI R26 , LOW ( 2 * _0x0 + ( 204 ) )
000261 e0b1     +LDI R27 , HIGH ( 2 * _0x0 + ( 204 ) )
                 	__POINTW2FN _0x0,204
000262 dea5      	RCALL _PcDbg
                 ; 0000 0116          nrf24_getData(str);
                 _0x63:
000263 01de      	MOVW R26,R28
000264 df16      	RCALL _nrf24_getData
                 ; 0000 0117          SendDataNFixed(str,CurrentPayLoad);
000265 01fe      	MOVW R30,R28
000266 d194      	RCALL SUBOPT_0x9
000267 2da5      	MOV  R26,R5
000268 de7e      	RCALL _SendDataNFixed
                 ; 0000 0118          PORTD.3 = 0;
000269 9893      	CBI  0x12,3
                 ; 0000 0119         }
                 ; 0000 011A         nrf24_powerUpRx();
                 _0x60:
00026a df2c      	RCALL _nrf24_powerUpRx
                 ; 0000 011B         delay_ms(1);
00026b d17b      	RCALL SUBOPT_0x4
                 ; 0000 011C         PORTD.4 = 1;
00026c 9a94      	SBI  0x12,4
                 ; 0000 011D 
                 ; 0000 011E //        /* Automatically goes to TX mode */
                 ; 0000 011F //        nrf24_send(str);
                 ; 0000 0120 //
                 ; 0000 0121 //        /* Wait for transmission to end */
                 ; 0000 0122 //        while(nrf24_isSending());
                 ; 0000 0123 //
                 ; 0000 0124 //        //ToDO : NRF_CE = 0;
                 ; 0000 0125 //        /* Make analysis on last tranmission attempt */
                 ; 0000 0126 //        temp = nrf24_lastMessageStatus();
                 ; 0000 0127 //
                 ; 0000 0128 //        if(temp == NRF24_TRANSMISSON_OK)
                 ; 0000 0129 //        {
                 ; 0000 012A //            PcDbg("Transmision done.");
                 ; 0000 012B //        }
                 ; 0000 012C //        else if(temp == NRF24_MESSAGE_LOST)
                 ; 0000 012D //        {
                 ; 0000 012E //            PcDbg("Message is lost.");
                 ; 0000 012F //        }
                 ; 0000 0130 //
                 ; 0000 0131 //		/* Retranmission count indicates the tranmission quality */
                 ; 0000 0132 //		temp = nrf24_retransmissionCount();
                 ; 0000 0133 //		if (temp > 0) printf("> Retranmission count: %d#",temp);
                 ; 0000 0134 //
                 ; 0000 0135 //		/* Optionally, go back to RX mode ... */
                 ; 0000 0136 //		//nrf24_powerUpRx();
                 ; 0000 0137 //
                 ; 0000 0138 //		/* Or you might want to power down after TX */
                 ; 0000 0139 //		// nrf24_powerDown();
                 ; 0000 013A //
                 ; 0000 013B //		/* Wait a little ... */
                 ; 0000 013C //		delay_ms(100);
                 ; 0000 013D       }
00026d 96a0      	ADIW R28,32
00026e cfe1      	RJMP _0x5C
                 ; 0000 013E }
                 _0x68:
00026f cfff      	RJMP _0x68
                 	#ifndef __SLEEP_DEFINED__
                 	#endif
                 
                 	.CSEG
                 _putchar:
000270 93aa      	ST   -Y,R26
                 putchar0:
000271 9b5d           sbis usr,udre
000272 cffe           rjmp putchar0
000273 81e8           ld   r30,y
000274 b9ec           out  udr,r30
000275 c15e      	RJMP _0x20C0001
                 _put_usart_G100:
000276 d164      	RCALL SUBOPT_0x1
000277 81aa      	LDD  R26,Y+2
000278 dff7      	RCALL _putchar
000279 81a8      	LD   R26,Y
00027a 81b9      	LDD  R27,Y+1
00027b 91ed      	LD   R30,X+
00027c 91fd      	LD   R31,X+
00027d 9631      	ADIW R30,1
00027e 93fe      	ST   -X,R31
00027f 93ee      	ST   -X,R30
000280 9623      	ADIW R28,3
000281 9508      	RET
                 __print_G100:
000282 d158      	RCALL SUBOPT_0x1
000283 9726      	SBIW R28,6
000284 d1c1      	RCALL __SAVELOCR6
000285 e010      	LDI  R17,0
000286 85ac      	LDD  R26,Y+12
000287 85bd      	LDD  R27,Y+12+1
000288 e0e0      	LDI  R30,LOW(0)
000289 e0f0      	LDI  R31,HIGH(0)
00028a 93ed      	ST   X+,R30
00028b 93fc      	ST   X,R31
                 _0x2000016:
00028c 89ea      	LDD  R30,Y+18
00028d 89fb      	LDD  R31,Y+18+1
00028e 9631      	ADIW R30,1
00028f 8bea      	STD  Y+18,R30
000290 8bfb      	STD  Y+18+1,R31
000291 9731      	SBIW R30,1
000292 91e4      	LPM  R30,Z
000293 2f2e      	MOV  R18,R30
000294 30e0      	CPI  R30,0
000295 f409      	BRNE PC+2
000296 c0fc      	RJMP _0x2000018
000297 2fe1      	MOV  R30,R17
000298 30e0      	CPI  R30,0
000299 f431      	BRNE _0x200001C
00029a 3225      	CPI  R18,37
00029b f411      	BRNE _0x200001D
00029c e011      	LDI  R17,LOW(1)
00029d c001      	RJMP _0x200001E
                 _0x200001D:
00029e d15f      	RCALL SUBOPT_0xA
                 _0x200001E:
00029f c0f2      	RJMP _0x200001B
                 _0x200001C:
0002a0 30e1      	CPI  R30,LOW(0x1)
0002a1 f4a1      	BRNE _0x200001F
0002a2 3225      	CPI  R18,37
0002a3 f411      	BRNE _0x2000020
0002a4 d159      	RCALL SUBOPT_0xA
0002a5 c0eb      	RJMP _0x20000C9
                 _0x2000020:
0002a6 e012      	LDI  R17,LOW(2)
0002a7 e040      	LDI  R20,LOW(0)
0002a8 e000      	LDI  R16,LOW(0)
0002a9 322d      	CPI  R18,45
0002aa f411      	BRNE _0x2000021
0002ab e001      	LDI  R16,LOW(1)
0002ac c0e5      	RJMP _0x200001B
                 _0x2000021:
0002ad 322b      	CPI  R18,43
0002ae f411      	BRNE _0x2000022
0002af e24b      	LDI  R20,LOW(43)
0002b0 c0e1      	RJMP _0x200001B
                 _0x2000022:
0002b1 3220      	CPI  R18,32
0002b2 f411      	BRNE _0x2000023
0002b3 e240      	LDI  R20,LOW(32)
0002b4 c0dd      	RJMP _0x200001B
                 _0x2000023:
0002b5 c002      	RJMP _0x2000024
                 _0x200001F:
0002b6 30e2      	CPI  R30,LOW(0x2)
0002b7 f439      	BRNE _0x2000025
                 _0x2000024:
0002b8 e050      	LDI  R21,LOW(0)
0002b9 e013      	LDI  R17,LOW(3)
0002ba 3320      	CPI  R18,48
0002bb f411      	BRNE _0x2000026
0002bc 6800      	ORI  R16,LOW(128)
0002bd c0d4      	RJMP _0x200001B
                 _0x2000026:
0002be c003      	RJMP _0x2000027
                 _0x2000025:
0002bf 30e3      	CPI  R30,LOW(0x3)
0002c0 f009      	BREQ PC+2
0002c1 c0d0      	RJMP _0x200001B
                 _0x2000027:
0002c2 3320      	CPI  R18,48
0002c3 f010      	BRLO _0x200002A
0002c4 332a      	CPI  R18,58
0002c5 f008      	BRLO _0x200002B
                 _0x200002A:
0002c6 c007      	RJMP _0x2000029
                 _0x200002B:
0002c7 e0aa      	LDI  R26,LOW(10)
0002c8 9f5a      	MUL  R21,R26
0002c9 2d50      	MOV  R21,R0
0002ca 2fe2      	MOV  R30,R18
0002cb 53e0      	SUBI R30,LOW(48)
0002cc 0f5e      	ADD  R21,R30
0002cd c0c4      	RJMP _0x200001B
                 _0x2000029:
0002ce 2fe2      	MOV  R30,R18
0002cf 36e3      	CPI  R30,LOW(0x63)
0002d0 f439      	BRNE _0x200002F
0002d1 d133      	RCALL SUBOPT_0xB
0002d2 d135      	RCALL SUBOPT_0xC
0002d3 d131      	RCALL SUBOPT_0xB
0002d4 81a4      	LDD  R26,Z+4
0002d5 93aa      	ST   -Y,R26
0002d6 d135      	RCALL SUBOPT_0xD
0002d7 c0b9      	RJMP _0x2000030
                 _0x200002F:
0002d8 37e3      	CPI  R30,LOW(0x73)
0002d9 f429      	BRNE _0x2000032
0002da d137      	RCALL SUBOPT_0xE
0002db d138      	RCALL SUBOPT_0xF
0002dc d0da      	RCALL _strlen
0002dd 2f1e      	MOV  R17,R30
0002de c007      	RJMP _0x2000033
                 _0x2000032:
0002df 37e0      	CPI  R30,LOW(0x70)
0002e0 f449      	BRNE _0x2000035
0002e1 d130      	RCALL SUBOPT_0xE
0002e2 d131      	RCALL SUBOPT_0xF
0002e3 d0de      	RCALL _strlenf
0002e4 2f1e      	MOV  R17,R30
0002e5 6008      	ORI  R16,LOW(8)
                 _0x2000033:
0002e6 6002      	ORI  R16,LOW(2)
0002e7 770f      	ANDI R16,LOW(127)
0002e8 e030      	LDI  R19,LOW(0)
0002e9 c02d      	RJMP _0x2000036
                 _0x2000035:
0002ea 36e4      	CPI  R30,LOW(0x64)
0002eb f011      	BREQ _0x2000039
0002ec 36e9      	CPI  R30,LOW(0x69)
0002ed f411      	BRNE _0x200003A
                 _0x2000039:
0002ee 6004      	ORI  R16,LOW(4)
0002ef c002      	RJMP _0x200003B
                 _0x200003A:
0002f0 37e5      	CPI  R30,LOW(0x75)
0002f1 f429      	BRNE _0x200003C
                 _0x200003B:
0002f2 e2e6      	LDI  R30,LOW(_tbl10_G100*2)
0002f3 e0f0      	LDI  R31,HIGH(_tbl10_G100*2)
0002f4 d128      	RCALL SUBOPT_0x10
0002f5 e015      	LDI  R17,LOW(5)
0002f6 c00b      	RJMP _0x200003D
                 _0x200003C:
0002f7 35e8      	CPI  R30,LOW(0x58)
0002f8 f411      	BRNE _0x200003F
0002f9 6008      	ORI  R16,LOW(8)
0002fa c003      	RJMP _0x2000040
                 _0x200003F:
0002fb 37e8      	CPI  R30,LOW(0x78)
0002fc f009      	BREQ PC+2
0002fd c093      	RJMP _0x2000071
                 _0x2000040:
0002fe e3e0      	LDI  R30,LOW(_tbl16_G100*2)
0002ff e0f0      	LDI  R31,HIGH(_tbl16_G100*2)
000300 d11c      	RCALL SUBOPT_0x10
000301 e014      	LDI  R17,LOW(4)
                 _0x200003D:
000302 ff02      	SBRS R16,2
000303 c011      	RJMP _0x2000042
000304 d10d      	RCALL SUBOPT_0xE
000305 d11a      	RCALL SUBOPT_0x11
000306 85ab      	LDD  R26,Y+11
000307 23aa      	TST  R26
000308 f432      	BRPL _0x2000043
000309 85ea      	LDD  R30,Y+10
00030a 85fb      	LDD  R31,Y+10+1
00030b d129      	RCALL __ANEGW1
00030c 87ea      	STD  Y+10,R30
00030d 87fb      	STD  Y+10+1,R31
00030e e24d      	LDI  R20,LOW(45)
                 _0x2000043:
00030f 3040      	CPI  R20,0
000310 f011      	BREQ _0x2000044
000311 5f1f      	SUBI R17,-LOW(1)
000312 c001      	RJMP _0x2000045
                 _0x2000044:
000313 7f0b      	ANDI R16,LOW(251)
                 _0x2000045:
000314 c002      	RJMP _0x2000046
                 _0x2000042:
000315 d0fc      	RCALL SUBOPT_0xE
000316 d109      	RCALL SUBOPT_0x11
                 _0x2000046:
                 _0x2000036:
000317 fd00      	SBRC R16,0
000318 c010      	RJMP _0x2000047
                 _0x2000048:
000319 1715      	CP   R17,R21
00031a f470      	BRSH _0x200004A
00031b ff07      	SBRS R16,7
00031c c008      	RJMP _0x200004B
00031d ff02      	SBRS R16,2
00031e c004      	RJMP _0x200004C
00031f 7f0b      	ANDI R16,LOW(251)
000320 2f24      	MOV  R18,R20
000321 5011      	SUBI R17,LOW(1)
000322 c001      	RJMP _0x200004D
                 _0x200004C:
000323 e320      	LDI  R18,LOW(48)
                 _0x200004D:
000324 c001      	RJMP _0x200004E
                 _0x200004B:
000325 e220      	LDI  R18,LOW(32)
                 _0x200004E:
000326 d0d7      	RCALL SUBOPT_0xA
000327 5051      	SUBI R21,LOW(1)
000328 cff0      	RJMP _0x2000048
                 _0x200004A:
                 _0x2000047:
000329 2f31      	MOV  R19,R17
00032a ff01      	SBRS R16,1
00032b c015      	RJMP _0x200004F
                 _0x2000050:
00032c 3030      	CPI  R19,0
00032d f091      	BREQ _0x2000052
00032e ff03      	SBRS R16,3
00032f c005      	RJMP _0x2000053
000330 81ee      	LDD  R30,Y+6
000331 81ff      	LDD  R31,Y+6+1
000332 9125      	LPM  R18,Z+
000333 d0e9      	RCALL SUBOPT_0x10
000334 c005      	RJMP _0x2000054
                 _0x2000053:
000335 81ae      	LDD  R26,Y+6
000336 81bf      	LDD  R27,Y+6+1
000337 912d      	LD   R18,X+
000338 83ae      	STD  Y+6,R26
000339 83bf      	STD  Y+6+1,R27
                 _0x2000054:
00033a d0c3      	RCALL SUBOPT_0xA
00033b 3050      	CPI  R21,0
00033c f009      	BREQ _0x2000055
00033d 5051      	SUBI R21,LOW(1)
                 _0x2000055:
00033e 5031      	SUBI R19,LOW(1)
00033f cfec      	RJMP _0x2000050
                 _0x2000052:
000340 c047      	RJMP _0x2000056
                 _0x200004F:
                 _0x2000058:
000341 e320      	LDI  R18,LOW(48)
000342 81ee      	LDD  R30,Y+6
000343 81ff      	LDD  R31,Y+6+1
000344 d0fd      	RCALL __GETW1PF
000345 87e8      	STD  Y+8,R30
000346 87f9      	STD  Y+8+1,R31
000347 81ee      	LDD  R30,Y+6
000348 81ff      	LDD  R31,Y+6+1
000349 9632      	ADIW R30,2
00034a d0d2      	RCALL SUBOPT_0x10
                 _0x200005A:
00034b 85e8      	LDD  R30,Y+8
00034c 85f9      	LDD  R31,Y+8+1
00034d 85aa      	LDD  R26,Y+10
00034e 85bb      	LDD  R27,Y+10+1
00034f 17ae      	CP   R26,R30
000350 07bf      	CPC  R27,R31
000351 f050      	BRLO _0x200005C
000352 5f2f      	SUBI R18,-LOW(1)
000353 85a8      	LDD  R26,Y+8
000354 85b9      	LDD  R27,Y+8+1
000355 85ea      	LDD  R30,Y+10
000356 85fb      	LDD  R31,Y+10+1
000357 1bea      	SUB  R30,R26
000358 0bfb      	SBC  R31,R27
000359 87ea      	STD  Y+10,R30
00035a 87fb      	STD  Y+10+1,R31
00035b cfef      	RJMP _0x200005A
                 _0x200005C:
00035c 332a      	CPI  R18,58
00035d f028      	BRLO _0x200005D
00035e ff03      	SBRS R16,3
00035f c002      	RJMP _0x200005E
000360 5f29      	SUBI R18,-LOW(7)
000361 c001      	RJMP _0x200005F
                 _0x200005E:
000362 5d29      	SUBI R18,-LOW(39)
                 _0x200005F:
                 _0x200005D:
000363 fd04      	SBRC R16,4
000364 c019      	RJMP _0x2000061
000365 3321      	CPI  R18,49
000366 f420      	BRSH _0x2000063
000367 85a8      	LDD  R26,Y+8
000368 85b9      	LDD  R27,Y+8+1
000369 9711      	SBIW R26,1
00036a f409      	BRNE _0x2000062
                 _0x2000063:
00036b c009      	RJMP _0x20000CA
                 _0x2000062:
00036c 1753      	CP   R21,R19
00036d f010      	BRLO _0x2000067
00036e ff00      	SBRS R16,0
00036f c001      	RJMP _0x2000068
                 _0x2000067:
000370 c011      	RJMP _0x2000066
                 _0x2000068:
000371 e220      	LDI  R18,LOW(32)
000372 ff07      	SBRS R16,7
000373 c00a      	RJMP _0x2000069
000374 e320      	LDI  R18,LOW(48)
                 _0x20000CA:
000375 6100      	ORI  R16,LOW(16)
000376 ff02      	SBRS R16,2
000377 c006      	RJMP _0x200006A
000378 7f0b      	ANDI R16,LOW(251)
000379 934a      	ST   -Y,R20
00037a d091      	RCALL SUBOPT_0xD
00037b 3050      	CPI  R21,0
00037c f009      	BREQ _0x200006B
00037d 5051      	SUBI R21,LOW(1)
                 _0x200006B:
                 _0x200006A:
                 _0x2000069:
                 _0x2000061:
00037e d07f      	RCALL SUBOPT_0xA
00037f 3050      	CPI  R21,0
000380 f009      	BREQ _0x200006C
000381 5051      	SUBI R21,LOW(1)
                 _0x200006C:
                 _0x2000066:
000382 5031      	SUBI R19,LOW(1)
000383 85a8      	LDD  R26,Y+8
000384 85b9      	LDD  R27,Y+8+1
000385 9712      	SBIW R26,2
000386 f008      	BRLO _0x2000059
000387 cfb9      	RJMP _0x2000058
                 _0x2000059:
                 _0x2000056:
000388 ff00      	SBRS R16,0
000389 c007      	RJMP _0x200006D
                 _0x200006E:
00038a 3050      	CPI  R21,0
00038b f029      	BREQ _0x2000070
00038c 5051      	SUBI R21,LOW(1)
00038d e2e0      	LDI  R30,LOW(32)
00038e 93ea      	ST   -Y,R30
00038f d07c      	RCALL SUBOPT_0xD
000390 cff9      	RJMP _0x200006E
                 _0x2000070:
                 _0x200006D:
                 _0x2000071:
                 _0x2000030:
                 _0x20000C9:
000391 e010      	LDI  R17,LOW(0)
                 _0x200001B:
000392 cef9      	RJMP _0x2000016
                 _0x2000018:
000393 85ac      	LDD  R26,Y+12
000394 85bd      	LDD  R27,Y+12+1
000395 d0a8      	RCALL __GETW1P
000396 d0b6      	RCALL __LOADLOCR6
000397 9664      	ADIW R28,20
000398 9508      	RET
                 _printf:
000399 92ff      	PUSH R15
00039a 2ef8      	MOV  R15,R24
00039b 9726      	SBIW R28,6
00039c d0ad      	RCALL __SAVELOCR2
00039d 01de      	MOVW R26,R28
00039e 9614      	ADIW R26,4
00039f d091      	RCALL __ADDW2R15
0003a0 018d      	MOVW R16,R26
0003a1 e0e0      	LDI  R30,LOW(0)
0003a2 83ec      	STD  Y+4,R30
0003a3 83ed      	STD  Y+4+1,R30
0003a4 83ee      	STD  Y+6,R30
0003a5 83ef      	STD  Y+6+1,R30
0003a6 01de      	MOVW R26,R28
0003a7 9618      	ADIW R26,8
0003a8 d088      	RCALL __ADDW2R15
0003a9 d094      	RCALL __GETW1P
0003aa d050      	RCALL SUBOPT_0x9
0003ab 931a      	ST   -Y,R17
0003ac 930a      	ST   -Y,R16
0003ad e7e6      	LDI  R30,LOW(_put_usart_G100)
0003ae e0f2      	LDI  R31,HIGH(_put_usart_G100)
0003af d04b      	RCALL SUBOPT_0x9
0003b0 01de      	MOVW R26,R28
0003b1 9618      	ADIW R26,8
0003b2 decf      	RCALL __print_G100
0003b3 d09d      	RCALL __LOADLOCR2
0003b4 9628      	ADIW R28,8
0003b5 90ff      	POP  R15
0003b6 9508      	RET
                 
                 	.CSEG
                 
                 	.DSEG
                 
                 	.CSEG
                 
                 	.CSEG
                 _strlen:
0003b7 d023      	RCALL SUBOPT_0x1
0003b8 91a9          ld   r26,y+
0003b9 91b9          ld   r27,y+
0003ba 27ee          clr  r30
0003bb 27ff          clr  r31
                 strlen0:
0003bc 916d          ld   r22,x+
0003bd 2366          tst  r22
0003be f011          breq strlen1
0003bf 9631          adiw r30,1
0003c0 cffb          rjmp strlen0
                 strlen1:
0003c1 9508          ret
                 _strlenf:
0003c2 d018      	RCALL SUBOPT_0x1
0003c3 27aa          clr  r26
0003c4 27bb          clr  r27
0003c5 91e9          ld   r30,y+
0003c6 91f9          ld   r31,y+
                 strlenf0:
0003c7 9005      	lpm  r0,z+
0003c8 2000          tst  r0
0003c9 f011          breq strlenf1
0003ca 9611          adiw r26,1
0003cb cffb          rjmp strlenf0
                 strlenf1:
0003cc 01fd          movw r30,r26
0003cd 9508          ret
                 	#ifndef __SLEEP_DEFINED__
                 	#endif
                 
                 	.CSEG
                 _spi:
0003ce 93aa      	ST   -Y,R26
0003cf 81e8      	LD   R30,Y
0003d0 b9ef      	OUT  0xF,R30
                 _0x2060003:
0003d1 9b77      	SBIS 0xE,7
0003d2 cffe      	RJMP _0x2060003
0003d3 b1ef      	IN   R30,0xF
                 _0x20C0001:
0003d4 9621      	ADIW R28,1
0003d5 9508      	RET
                 
                 	.CSEG
                 
                 	.CSEG
                 
                 	.DSEG
                 _rx_buffer:
000160           	.BYTE 0x8
                 _tx_address:
000168           	.BYTE 0x5
                 _rx_address:
00016d           	.BYTE 0x5
                 __seed_G101:
000172           	.BYTE 0x4
                 
                 	.CSEG
                 ;OPTIMIZER ADDED SUBROUTINE, CALLED 3 TIMES, CODE SIZE REDUCTION:4 WORDS
                 SUBOPT_0x0:
0003d6 27ee      	CLR  R30
0003d7 0fa1      	ADD  R26,R17
0003d8 1fbe      	ADC  R27,R30
0003d9 91ac      	LD   R26,X
0003da 9508      	RET
                 
                 ;OPTIMIZER ADDED SUBROUTINE, CALLED 9 TIMES, CODE SIZE REDUCTION:6 WORDS
                 SUBOPT_0x1:
0003db 93ba      	ST   -Y,R27
0003dc 93aa      	ST   -Y,R26
0003dd 9508      	RET
                 
                 ;OPTIMIZER ADDED SUBROUTINE, CALLED 4 TIMES, CODE SIZE REDUCTION:1 WORDS
                 SUBOPT_0x2:
0003de 81aa      	LDD  R26,Y+2
0003df 81bb      	LDD  R27,Y+2+1
0003e0 9508      	RET
                 
                 ;OPTIMIZER ADDED SUBROUTINE, CALLED 2 TIMES, CODE SIZE REDUCTION:4 WORDS
                 SUBOPT_0x3:
0003e1 2fe1      	MOV  R30,R17
0003e2 dffb      	RCALL SUBOPT_0x2
0003e3 e0f0      	LDI  R31,0
0003e4 0fea      	ADD  R30,R26
0003e5 1ffb      	ADC  R31,R27
0003e6 9508      	RET
                 
                 ;OPTIMIZER ADDED SUBROUTINE, CALLED 2 TIMES, CODE SIZE REDUCTION:2 WORDS
                 SUBOPT_0x4:
0003e7 e0a1      	LDI  R26,LOW(1)
0003e8 e0b0      	LDI  R27,0
0003e9 c03d      	RJMP _delay_ms
                 
                 ;OPTIMIZER ADDED SUBROUTINE, CALLED 4 TIMES, CODE SIZE REDUCTION:4 WORDS
                 SUBOPT_0x5:
0003ea 93ea      	ST   -Y,R30
0003eb e0a3      	LDI  R26,LOW(3)
0003ec cd6f      	RJMP _nrf24_configRegister
                 
                 ;OPTIMIZER ADDED SUBROUTINE, CALLED 5 TIMES, CODE SIZE REDUCTION:6 WORDS
                 SUBOPT_0x6:
0003ed 93ea      	ST   -Y,R30
0003ee e0a0      	LDI  R26,LOW(0)
0003ef cd6c      	RJMP _nrf24_configRegister
                 
                 ;OPTIMIZER ADDED SUBROUTINE, CALLED 3 TIMES, CODE SIZE REDUCTION:10 WORDS
                 SUBOPT_0x7:
0003f0 93ea      	ST   -Y,R30
0003f1 81e9      	LDD  R30,Y+1
0003f2 81fa      	LDD  R31,Y+1+1
0003f3 93fa      	ST   -Y,R31
0003f4 93ea      	ST   -Y,R30
0003f5 e0a5      	LDI  R26,LOW(5)
0003f6 cde0      	RJMP _nrf24_writeRegister
                 
                 ;OPTIMIZER ADDED SUBROUTINE, CALLED 2 TIMES, CODE SIZE REDUCTION:1 WORDS
                 SUBOPT_0x8:
0003f7 71ef      	ANDI R30,LOW(0x1F)
0003f8 62e0      	ORI  R30,0x20
0003f9 2fae      	MOV  R26,R30
0003fa cfd3      	RJMP _spi
                 
                 ;OPTIMIZER ADDED SUBROUTINE, CALLED 10 TIMES, CODE SIZE REDUCTION:7 WORDS
                 SUBOPT_0x9:
0003fb 93fa      	ST   -Y,R31
0003fc 93ea      	ST   -Y,R30
0003fd 9508      	RET
                 
                 ;OPTIMIZER ADDED SUBROUTINE, CALLED 5 TIMES, CODE SIZE REDUCTION:18 WORDS
                 SUBOPT_0xA:
0003fe 932a      	ST   -Y,R18
0003ff 85ad      	LDD  R26,Y+13
000400 85be      	LDD  R27,Y+13+1
000401 85ef      	LDD  R30,Y+15
000402 89f8      	LDD  R31,Y+15+1
000403 9509      	ICALL
000404 9508      	RET
                 
                 ;OPTIMIZER ADDED SUBROUTINE, CALLED 6 TIMES, CODE SIZE REDUCTION:3 WORDS
                 SUBOPT_0xB:
000405 89e8      	LDD  R30,Y+16
000406 89f9      	LDD  R31,Y+16+1
000407 9508      	RET
                 
                 ;OPTIMIZER ADDED SUBROUTINE, CALLED 5 TIMES, CODE SIZE REDUCTION:6 WORDS
                 SUBOPT_0xC:
000408 9734      	SBIW R30,4
000409 8be8      	STD  Y+16,R30
00040a 8bf9      	STD  Y+16+1,R31
00040b 9508      	RET
                 
                 ;OPTIMIZER ADDED SUBROUTINE, CALLED 3 TIMES, CODE SIZE REDUCTION:6 WORDS
                 SUBOPT_0xD:
00040c 85ad      	LDD  R26,Y+13
00040d 85be      	LDD  R27,Y+13+1
00040e 85ef      	LDD  R30,Y+15
00040f 89f8      	LDD  R31,Y+15+1
000410 9509      	ICALL
000411 9508      	RET
                 
                 ;OPTIMIZER ADDED SUBROUTINE, CALLED 4 TIMES, CODE SIZE REDUCTION:1 WORDS
                 SUBOPT_0xE:
000412 dff2      	RCALL SUBOPT_0xB
000413 cff4      	RJMP SUBOPT_0xC
                 
                 ;OPTIMIZER ADDED SUBROUTINE, CALLED 2 TIMES, CODE SIZE REDUCTION:5 WORDS
                 SUBOPT_0xF:
000414 89a8      	LDD  R26,Y+16
000415 89b9      	LDD  R27,Y+16+1
000416 9614      	ADIW R26,4
000417 d026      	RCALL __GETW1P
000418 83ee      	STD  Y+6,R30
000419 83ff      	STD  Y+6+1,R31
00041a 81ae      	LDD  R26,Y+6
00041b 81bf      	LDD  R27,Y+6+1
00041c 9508      	RET
                 
                 ;OPTIMIZER ADDED SUBROUTINE, CALLED 4 TIMES, CODE SIZE REDUCTION:1 WORDS
                 SUBOPT_0x10:
00041d 83ee      	STD  Y+6,R30
00041e 83ff      	STD  Y+6+1,R31
00041f 9508      	RET
                 
                 ;OPTIMIZER ADDED SUBROUTINE, CALLED 2 TIMES, CODE SIZE REDUCTION:3 WORDS
                 SUBOPT_0x11:
000420 89a8      	LDD  R26,Y+16
000421 89b9      	LDD  R27,Y+16+1
000422 9614      	ADIW R26,4
000423 d01a      	RCALL __GETW1P
000424 87ea      	STD  Y+10,R30
000425 87fb      	STD  Y+10+1,R31
000426 9508      	RET
                 
                 
                 	.CSEG
                 _delay_ms:
000427 9610      	adiw r26,0
000428 f039      	breq __delay_ms1
                 __delay_ms0:
                +
000429 ed80     +LDI R24 , LOW ( 0x7D0 )
00042a e097     +LDI R25 , HIGH ( 0x7D0 )
                +__DELAY_USW_LOOP :
00042b 9701     +SBIW R24 , 1
00042c f7f1     +BRNE __DELAY_USW_LOOP
                 	__DELAY_USW 0x7D0
00042d 95a8      	wdr
00042e 9711      	sbiw r26,1
00042f f7c9      	brne __delay_ms0
                 __delay_ms1:
000430 9508      	ret
                 
                 __ADDW2R15:
000431 2400      	CLR  R0
000432 0daf      	ADD  R26,R15
000433 1db0      	ADC  R27,R0
000434 9508      	RET
                 
                 __ANEGW1:
000435 95f1      	NEG  R31
000436 95e1      	NEG  R30
000437 40f0      	SBCI R31,0
000438 9508      	RET
                 
                 __LNEGB1:
000439 23ee      	TST  R30
00043a e0e1      	LDI  R30,1
00043b f009      	BREQ __LNEGB1F
00043c 27ee      	CLR  R30
                 __LNEGB1F:
00043d 9508      	RET
                 
                 __GETW1P:
00043e 91ed      	LD   R30,X+
00043f 91fc      	LD   R31,X
000440 9711      	SBIW R26,1
000441 9508      	RET
                 
                 __GETW1PF:
000442 9005      	LPM  R0,Z+
000443 91f4      	LPM  R31,Z
000444 2de0      	MOV  R30,R0
000445 9508      	RET
                 
                 __SAVELOCR6:
000446 935a      	ST   -Y,R21
                 __SAVELOCR5:
000447 934a      	ST   -Y,R20
                 __SAVELOCR4:
000448 933a      	ST   -Y,R19
                 __SAVELOCR3:
000449 932a      	ST   -Y,R18
                 __SAVELOCR2:
00044a 931a      	ST   -Y,R17
00044b 930a      	ST   -Y,R16
00044c 9508      	RET
                 
                 __LOADLOCR6:
00044d 815d      	LDD  R21,Y+5
                 __LOADLOCR5:
00044e 814c      	LDD  R20,Y+4
                 __LOADLOCR4:
00044f 813b      	LDD  R19,Y+3
                 __LOADLOCR3:
000450 812a      	LDD  R18,Y+2
                 __LOADLOCR2:
000451 8119      	LDD  R17,Y+1
000452 8108      	LD   R16,Y
000453 9508      	RET
                 
                 __LOADLOCR2P:
000454 9109      	LD   R16,Y+
000455 9119      	LD   R17,Y+
000456 9508      	RET
                 
                 __INITLOCB:
                 __INITLOCW:
000457 0fac      	ADD  R26,R28
000458 1fbd      	ADC  R27,R29
                 __INITLOC0:
000459 9005      	LPM  R0,Z+
00045a 920d      	ST   X+,R0
00045b 958a      	DEC  R24
00045c f7e1      	BRNE __INITLOC0
00045d 9508      	RET
                 
                 ;END OF CODE MARKER
                 __END_OF_CODE:


RESOURCE USE INFORMATION
------------------------

Notice:
The register and instruction counts are symbol table hit counts,
and hence implicitly used resources are not counted, eg, the
'lpm' instruction without operands implicitly uses r0 and z,
none of which are counted.

x,y,z are separate entities in the symbol table and are
counted separately from r26..r31 here.

.dseg memory usage only counts static data declared with .byte

ATmega8 register use summary:
r0 :  13 r1 :   1 r2 :   1 r3 :   0 r4 :   4 r5 :   4 r6 :   3 r7 :   0 
r8 :   0 r9 :   0 r10:   0 r11:   0 r12:   0 r13:   0 r14:   0 r15:   4 
r16:  35 r17:  50 r18:  27 r19:   8 r20:   9 r21:  17 r22:   4 r23:   0 
r24:  13 r25:   3 r26: 105 r27:  41 r28:  20 r29:   2 r30: 231 r31:  56 
x  :  16 y  : 169 z  :  16 
Registers used: 25 out of 35 (71.4%)

ATmega8 instruction use summary:
.lds  :   0 .lds.l:   0 .sts  :   0 .sts.l:   0 adc   :   4 add   :   5 
adiw  :  21 and   :   0 andi  :   8 asr   :   0 bclr  :   0 bld   :   1 
brbc  :   0 brbs  :   0 brcc  :   0 brcs  :   0 break :   0 breq  :  15 
brge  :   0 brhc  :   0 brhs  :   0 brid  :   0 brie  :   0 brlo  :   6 
brlt  :   0 brmi  :   0 brne  :  26 brpl  :   1 brsh  :   7 brtc  :   0 
brts  :   0 brvc  :   0 brvs  :   0 bset  :   0 bst   :   0 cbi   :  11 
cbr   :   0 clc   :   0 clh   :   0 cli   :   1 cln   :   0 clr   :  11 
cls   :   0 clt   :   0 clv   :   0 clz   :   0 com   :   0 cp    :  10 
cpc   :   1 cpi   :  30 cpse  :   0 dec   :   2 des   :   0 eor   :   0 
fmul  :   0 fmuls :   0 fmulsu:   0 icall :   2 ijmp  :   0 in    :   6 
inc   :   2 ld    :  24 ldd   :  82 ldi   : 142 lds   :   0 lpm   :  17 
lsl   :   0 lsr   :   0 mov   :  24 movw  :  10 mul   :   1 muls  :   0 
mulsu :   0 neg   :   2 nop   :   0 or    :   0 ori   :   7 out   :  46 
pop   :   4 push  :   4 rcall : 139 ret   :  35 reti  :   1 rjmp  :  98 
rol   :   0 ror   :   0 sbc   :   1 sbci  :   2 sbi   :  12 sbic  :   0 
sbis  :   2 sbiw  :  13 sbr   :   0 sbrc  :   2 sbrs  :  11 sec   :   0 
seh   :   0 sei   :   1 sen   :   0 ser   :   0 ses   :   0 set   :   1 
sev   :   0 sez   :   0 sleep :   0 spm   :   0 st    :  59 std   :  22 
sts   :   0 sub   :   1 subi  :  18 swap  :   0 tst   :   4 wdr   :   1 

Instructions used: 51 out of 114 (44.7%)

ATmega8 memory use summary [bytes]:
Segment   Begin    End      Code   Data   Used    Size   Use%
---------------------------------------------------------------
[.cseg] 0x000000 0x0008bc   1906    330   2236    8192  27.3%
[.dseg] 0x000060 0x000176      0     22     22    1119   2.0%
[.eseg] 0x000000 0x000000      0      0      0     512   0.0%

Assembly complete, 0 errors, 9 warnings
